
oven.elf:     file format elf32-avr

Sections:
Idx Name          Size      VMA       LMA       File off  Algn
  0 .data         0000000e  00800100  00000522  000005b6  2**0
                  CONTENTS, ALLOC, LOAD, DATA
  1 .text         00000522  00000000  00000000  00000094  2**1
                  CONTENTS, ALLOC, LOAD, READONLY, CODE
  2 .bss          00000007  0080010e  0080010e  000005c4  2**0
                  ALLOC
  3 .comment      00000030  00000000  00000000  000005c4  2**0
                  CONTENTS, READONLY
  4 .note.gnu.avr.deviceinfo 00000040  00000000  00000000  000005f4  2**2
                  CONTENTS, READONLY
  5 .debug_aranges 00000138  00000000  00000000  00000634  2**0
                  CONTENTS, READONLY, DEBUGGING
  6 .debug_info   00002b26  00000000  00000000  0000076c  2**0
                  CONTENTS, READONLY, DEBUGGING
  7 .debug_abbrev 00000c27  00000000  00000000  00003292  2**0
                  CONTENTS, READONLY, DEBUGGING
  8 .debug_line   00000e04  00000000  00000000  00003eb9  2**0
                  CONTENTS, READONLY, DEBUGGING
  9 .debug_frame  00000278  00000000  00000000  00004cc0  2**2
                  CONTENTS, READONLY, DEBUGGING
 10 .debug_str    00000653  00000000  00000000  00004f38  2**0
                  CONTENTS, READONLY, DEBUGGING
 11 .debug_loc    0000211b  00000000  00000000  0000558b  2**0
                  CONTENTS, READONLY, DEBUGGING
 12 .debug_ranges 000000f8  00000000  00000000  000076a6  2**0
                  CONTENTS, READONLY, DEBUGGING

Disassembly of section .text:

00000000 <__vectors>:
   0:	0c 94 5a 00 	jmp	0xb4	; 0xb4 <__ctors_end>
   4:	0c 94 77 00 	jmp	0xee	; 0xee <__bad_interrupt>
   8:	0c 94 77 00 	jmp	0xee	; 0xee <__bad_interrupt>
   c:	0c 94 77 00 	jmp	0xee	; 0xee <__bad_interrupt>
  10:	0c 94 77 00 	jmp	0xee	; 0xee <__bad_interrupt>
  14:	0c 94 77 00 	jmp	0xee	; 0xee <__bad_interrupt>
  18:	0c 94 77 00 	jmp	0xee	; 0xee <__bad_interrupt>
  1c:	0c 94 77 00 	jmp	0xee	; 0xee <__bad_interrupt>
  20:	0c 94 77 00 	jmp	0xee	; 0xee <__bad_interrupt>
  24:	0c 94 77 00 	jmp	0xee	; 0xee <__bad_interrupt>
  28:	0c 94 77 00 	jmp	0xee	; 0xee <__bad_interrupt>
  2c:	0c 94 48 02 	jmp	0x490	; 0x490 <__vector_11>
  30:	0c 94 77 00 	jmp	0xee	; 0xee <__bad_interrupt>
  34:	0c 94 77 00 	jmp	0xee	; 0xee <__bad_interrupt>
  38:	0c 94 77 00 	jmp	0xee	; 0xee <__bad_interrupt>
  3c:	0c 94 77 00 	jmp	0xee	; 0xee <__bad_interrupt>
  40:	0c 94 77 00 	jmp	0xee	; 0xee <__bad_interrupt>
  44:	0c 94 77 00 	jmp	0xee	; 0xee <__bad_interrupt>
  48:	0c 94 77 00 	jmp	0xee	; 0xee <__bad_interrupt>
  4c:	0c 94 77 00 	jmp	0xee	; 0xee <__bad_interrupt>
  50:	0c 94 77 00 	jmp	0xee	; 0xee <__bad_interrupt>
  54:	0c 94 77 00 	jmp	0xee	; 0xee <__bad_interrupt>
  58:	0c 94 77 00 	jmp	0xee	; 0xee <__bad_interrupt>
  5c:	0c 94 77 00 	jmp	0xee	; 0xee <__bad_interrupt>
  60:	0c 94 77 00 	jmp	0xee	; 0xee <__bad_interrupt>
  64:	0c 94 77 00 	jmp	0xee	; 0xee <__bad_interrupt>
  68:	0c 94 77 00 	jmp	0xee	; 0xee <__bad_interrupt>
  6c:	0c 94 77 00 	jmp	0xee	; 0xee <__bad_interrupt>
  70:	0c 94 77 00 	jmp	0xee	; 0xee <__bad_interrupt>
  74:	0c 94 77 00 	jmp	0xee	; 0xee <__bad_interrupt>
  78:	0c 94 77 00 	jmp	0xee	; 0xee <__bad_interrupt>
  7c:	0c 94 77 00 	jmp	0xee	; 0xee <__bad_interrupt>
  80:	0c 94 77 00 	jmp	0xee	; 0xee <__bad_interrupt>
  84:	0c 94 77 00 	jmp	0xee	; 0xee <__bad_interrupt>
  88:	0c 94 77 00 	jmp	0xee	; 0xee <__bad_interrupt>
  8c:	0c 94 77 00 	jmp	0xee	; 0xee <__bad_interrupt>
  90:	0c 94 77 00 	jmp	0xee	; 0xee <__bad_interrupt>
  94:	0c 94 77 00 	jmp	0xee	; 0xee <__bad_interrupt>
  98:	0c 94 77 00 	jmp	0xee	; 0xee <__bad_interrupt>
  9c:	0c 94 77 00 	jmp	0xee	; 0xee <__bad_interrupt>
  a0:	0c 94 77 00 	jmp	0xee	; 0xee <__bad_interrupt>
  a4:	0c 94 77 00 	jmp	0xee	; 0xee <__bad_interrupt>
  a8:	0c 94 77 00 	jmp	0xee	; 0xee <__bad_interrupt>
  ac:	0c 94 77 00 	jmp	0xee	; 0xee <__bad_interrupt>
  b0:	0c 94 77 00 	jmp	0xee	; 0xee <__bad_interrupt>

000000b4 <__ctors_end>:
  b4:	11 24       	eor	r1, r1
  b6:	1f be       	out	0x3f, r1	; 63
  b8:	cf ef       	ldi	r28, 0xFF	; 255
  ba:	d8 e0       	ldi	r29, 0x08	; 8
  bc:	de bf       	out	0x3e, r29	; 62
  be:	cd bf       	out	0x3d, r28	; 61

000000c0 <__do_copy_data>:
  c0:	11 e0       	ldi	r17, 0x01	; 1
  c2:	a0 e0       	ldi	r26, 0x00	; 0
  c4:	b1 e0       	ldi	r27, 0x01	; 1
  c6:	e2 e2       	ldi	r30, 0x22	; 34
  c8:	f5 e0       	ldi	r31, 0x05	; 5
  ca:	02 c0       	rjmp	.+4      	; 0xd0 <__do_copy_data+0x10>
  cc:	05 90       	lpm	r0, Z+
  ce:	0d 92       	st	X+, r0
  d0:	ae 30       	cpi	r26, 0x0E	; 14
  d2:	b1 07       	cpc	r27, r17
  d4:	d9 f7       	brne	.-10     	; 0xcc <__do_copy_data+0xc>

000000d6 <__do_clear_bss>:
  d6:	21 e0       	ldi	r18, 0x01	; 1
  d8:	ae e0       	ldi	r26, 0x0E	; 14
  da:	b1 e0       	ldi	r27, 0x01	; 1
  dc:	01 c0       	rjmp	.+2      	; 0xe0 <.do_clear_bss_start>

000000de <.do_clear_bss_loop>:
  de:	1d 92       	st	X+, r1

000000e0 <.do_clear_bss_start>:
  e0:	a5 31       	cpi	r26, 0x15	; 21
  e2:	b2 07       	cpc	r27, r18
  e4:	e1 f7       	brne	.-8      	; 0xde <.do_clear_bss_loop>
  e6:	0e 94 ff 01 	call	0x3fe	; 0x3fe <main>
  ea:	0c 94 8f 02 	jmp	0x51e	; 0x51e <_exit>

000000ee <__bad_interrupt>:
  ee:	0c 94 00 00 	jmp	0	; 0x0 <__vectors>

000000f2 <int8_2_char>:
#include "ascii.h"
extern size_t int8_2_char(unsigned char arr[3], uint8_t value){
  f2:	fc 01       	movw	r30, r24
	register size_t i;
	if(value >= 100)i = 3;
  f4:	64 36       	cpi	r22, 0x64	; 100
  f6:	78 f4       	brcc	.+30     	; 0x116 <int8_2_char+0x24>
	else if(value >= 10)i = 2;
  f8:	6a 30       	cpi	r22, 0x0A	; 10
  fa:	50 f5       	brcc	.+84     	; 0x150 <int8_2_char+0x5e>
	else i = 1;
  fc:	21 e0       	ldi	r18, 0x01	; 1
  fe:	30 e0       	ldi	r19, 0x00	; 0
	memset(arr,254,3);
 100:	8e ef       	ldi	r24, 0xFE	; 254
 102:	9e ef       	ldi	r25, 0xFE	; 254
 104:	91 83       	std	Z+1, r25	; 0x01
 106:	80 83       	st	Z, r24
 108:	8e ef       	ldi	r24, 0xFE	; 254
 10a:	82 83       	std	Z+2, r24	; 0x02
	while(value){
 10c:	61 11       	cpse	r22, r1
 10e:	0b c0       	rjmp	.+22     	; 0x126 <int8_2_char+0x34>
		arr[--i] = (value % 10) + '0';
		value /= 10;
	}
	return 3;
}
 110:	83 e0       	ldi	r24, 0x03	; 3
 112:	90 e0       	ldi	r25, 0x00	; 0
 114:	08 95       	ret
extern size_t int8_2_char(unsigned char arr[3], uint8_t value){
	register size_t i;
	if(value >= 100)i = 3;
	else if(value >= 10)i = 2;
	else i = 1;
	memset(arr,254,3);
 116:	8e ef       	ldi	r24, 0xFE	; 254
 118:	9e ef       	ldi	r25, 0xFE	; 254
 11a:	91 83       	std	Z+1, r25	; 0x01
 11c:	80 83       	st	Z, r24
 11e:	8e ef       	ldi	r24, 0xFE	; 254
 120:	82 83       	std	Z+2, r24	; 0x02
#include "ascii.h"
extern size_t int8_2_char(unsigned char arr[3], uint8_t value){
	register size_t i;
	if(value >= 100)i = 3;
 122:	23 e0       	ldi	r18, 0x03	; 3
 124:	30 e0       	ldi	r19, 0x00	; 0
 126:	e2 0f       	add	r30, r18
 128:	f3 1f       	adc	r31, r19
	else if(value >= 10)i = 2;
	else i = 1;
	memset(arr,254,3);
	while(value){
		arr[--i] = (value % 10) + '0';
 12a:	8d ec       	ldi	r24, 0xCD	; 205
 12c:	68 9f       	mul	r22, r24
 12e:	91 2d       	mov	r25, r1
 130:	11 24       	eor	r1, r1
 132:	96 95       	lsr	r25
 134:	96 95       	lsr	r25
 136:	96 95       	lsr	r25
 138:	2a e0       	ldi	r18, 0x0A	; 10
 13a:	92 9f       	mul	r25, r18
 13c:	60 19       	sub	r22, r0
 13e:	11 24       	eor	r1, r1
 140:	60 5d       	subi	r22, 0xD0	; 208
 142:	62 93       	st	-Z, r22
		value /= 10;
 144:	69 2f       	mov	r22, r25
	register size_t i;
	if(value >= 100)i = 3;
	else if(value >= 10)i = 2;
	else i = 1;
	memset(arr,254,3);
	while(value){
 146:	91 11       	cpse	r25, r1
 148:	f1 cf       	rjmp	.-30     	; 0x12c <int8_2_char+0x3a>
		arr[--i] = (value % 10) + '0';
		value /= 10;
	}
	return 3;
}
 14a:	83 e0       	ldi	r24, 0x03	; 3
 14c:	90 e0       	ldi	r25, 0x00	; 0
 14e:	08 95       	ret
#include "ascii.h"
extern size_t int8_2_char(unsigned char arr[3], uint8_t value){
	register size_t i;
	if(value >= 100)i = 3;
	else if(value >= 10)i = 2;
 150:	22 e0       	ldi	r18, 0x02	; 2
 152:	30 e0       	ldi	r19, 0x00	; 0
 154:	d5 cf       	rjmp	.-86     	; 0x100 <int8_2_char+0xe>

00000156 <print>:
		arr[--i] = (value % 10) + '0';
		value /= 10;
	}
	return 3;
}
extern void print(void (*function)(unsigned char),unsigned char* arr,size_t size){
 156:	cf 92       	push	r12
 158:	df 92       	push	r13
 15a:	ef 92       	push	r14
 15c:	ff 92       	push	r15
 15e:	0f 93       	push	r16
 160:	1f 93       	push	r17
 162:	cf 93       	push	r28
	for(uint8_t i = 0; i < size;i++)(*function)(arr[i]);
 164:	41 15       	cp	r20, r1
 166:	51 05       	cpc	r21, r1
 168:	91 f0       	breq	.+36     	; 0x18e <print+0x38>
 16a:	8a 01       	movw	r16, r20
 16c:	6b 01       	movw	r12, r22
 16e:	7c 01       	movw	r14, r24
 170:	20 e0       	ldi	r18, 0x00	; 0
 172:	30 e0       	ldi	r19, 0x00	; 0
 174:	c0 e0       	ldi	r28, 0x00	; 0
 176:	f6 01       	movw	r30, r12
 178:	e2 0f       	add	r30, r18
 17a:	f3 1f       	adc	r31, r19
 17c:	80 81       	ld	r24, Z
 17e:	f7 01       	movw	r30, r14
 180:	09 95       	icall
 182:	cf 5f       	subi	r28, 0xFF	; 255
 184:	2c 2f       	mov	r18, r28
 186:	30 e0       	ldi	r19, 0x00	; 0
 188:	20 17       	cp	r18, r16
 18a:	31 07       	cpc	r19, r17
 18c:	a0 f3       	brcs	.-24     	; 0x176 <print+0x20>
	
}
 18e:	cf 91       	pop	r28
 190:	1f 91       	pop	r17
 192:	0f 91       	pop	r16
 194:	ff 90       	pop	r15
 196:	ef 90       	pop	r14
 198:	df 90       	pop	r13
 19a:	cf 90       	pop	r12
 19c:	08 95       	ret

0000019e <Cprint>:
extern void Cprint(void (*function)(unsigned char),const char* str) {
 19e:	cf 92       	push	r12
 1a0:	df 92       	push	r13
 1a2:	ef 92       	push	r14
 1a4:	ff 92       	push	r15
 1a6:	0f 93       	push	r16
 1a8:	1f 93       	push	r17
 1aa:	cf 93       	push	r28
	register size_t size = strlen(str);
 1ac:	fb 01       	movw	r30, r22
 1ae:	01 90       	ld	r0, Z+
 1b0:	00 20       	and	r0, r0
 1b2:	e9 f7       	brne	.-6      	; 0x1ae <Cprint+0x10>
 1b4:	31 97       	sbiw	r30, 0x01	; 1
 1b6:	8f 01       	movw	r16, r30
 1b8:	06 1b       	sub	r16, r22
 1ba:	17 0b       	sbc	r17, r23
	for(uint8_t i = 0; i < size;i++)(*function)(str[i]);
 1bc:	89 f0       	breq	.+34     	; 0x1e0 <Cprint+0x42>
 1be:	7b 01       	movw	r14, r22
 1c0:	6c 01       	movw	r12, r24
 1c2:	20 e0       	ldi	r18, 0x00	; 0
 1c4:	30 e0       	ldi	r19, 0x00	; 0
 1c6:	c0 e0       	ldi	r28, 0x00	; 0
 1c8:	f7 01       	movw	r30, r14
 1ca:	e2 0f       	add	r30, r18
 1cc:	f3 1f       	adc	r31, r19
 1ce:	80 81       	ld	r24, Z
 1d0:	f6 01       	movw	r30, r12
 1d2:	09 95       	icall
 1d4:	cf 5f       	subi	r28, 0xFF	; 255
 1d6:	2c 2f       	mov	r18, r28
 1d8:	30 e0       	ldi	r19, 0x00	; 0
 1da:	20 17       	cp	r18, r16
 1dc:	31 07       	cpc	r19, r17
 1de:	a0 f3       	brcs	.-24     	; 0x1c8 <Cprint+0x2a>
 1e0:	cf 91       	pop	r28
 1e2:	1f 91       	pop	r17
 1e4:	0f 91       	pop	r16
 1e6:	ff 90       	pop	r15
 1e8:	ef 90       	pop	r14
 1ea:	df 90       	pop	r13
 1ec:	cf 90       	pop	r12
 1ee:	08 95       	ret

000001f0 <lcdbegin>:
	lcdcommand(LCD_ENTRYMODESET | _displaymode);
}

extern void lcdsend(uint8_t value, bool mode) {
	if(mode)
	PORTB |= 1;
 1f0:	62 30       	cpi	r22, 0x02	; 2
 1f2:	08 f4       	brcc	.+2      	; 0x1f6 <lcdbegin+0x6>
 1f4:	c0 c0       	rjmp	.+384    	; 0x376 <lcdbegin+0x186>
 1f6:	88 e1       	ldi	r24, 0x18	; 24
 1f8:	80 93 0e 01 	sts	0x010E, r24	; 0x80010e <__data_end>
 1fc:	84 b1       	in	r24, 0x04	; 4
 1fe:	83 60       	ori	r24, 0x03	; 3
 200:	84 b9       	out	0x04, r24	; 4
 202:	8f ef       	ldi	r24, 0xFF	; 255
 204:	8a b9       	out	0x0a, r24	; 10
 206:	83 ed       	ldi	r24, 0xD3	; 211
 208:	90 e3       	ldi	r25, 0x30	; 48
 20a:	01 97       	sbiw	r24, 0x01	; 1
 20c:	f1 f7       	brne	.-4      	; 0x20a <lcdbegin+0x1a>
 20e:	00 c0       	rjmp	.+0      	; 0x210 <lcdbegin+0x20>
 210:	00 00       	nop
 212:	85 b1       	in	r24, 0x05	; 5
 214:	8c 7f       	andi	r24, 0xFC	; 252
 216:	85 b9       	out	0x05, r24	; 5
 218:	80 91 0e 01 	lds	r24, 0x010E	; 0x80010e <__data_end>
 21c:	80 62       	ori	r24, 0x20	; 32
 21e:	28 98       	cbi	0x05, 0	; 5
 220:	8b b9       	out	0x0b, r24	; 11
 222:	29 98       	cbi	0x05, 1	; 5
 224:	83 ec       	ldi	r24, 0xC3	; 195
 226:	99 e0       	ldi	r25, 0x09	; 9
 228:	01 97       	sbiw	r24, 0x01	; 1
 22a:	f1 f7       	brne	.-4      	; 0x228 <lcdbegin+0x38>
 22c:	00 c0       	rjmp	.+0      	; 0x22e <lcdbegin+0x3e>
 22e:	00 00       	nop
 230:	29 9a       	sbi	0x05, 1	; 5
 232:	83 ec       	ldi	r24, 0xC3	; 195
 234:	99 e0       	ldi	r25, 0x09	; 9
 236:	01 97       	sbiw	r24, 0x01	; 1
 238:	f1 f7       	brne	.-4      	; 0x236 <lcdbegin+0x46>
 23a:	00 c0       	rjmp	.+0      	; 0x23c <lcdbegin+0x4c>
 23c:	00 00       	nop
 23e:	29 98       	cbi	0x05, 1	; 5
 240:	83 ec       	ldi	r24, 0xC3	; 195
 242:	99 e0       	ldi	r25, 0x09	; 9
 244:	01 97       	sbiw	r24, 0x01	; 1
 246:	f1 f7       	brne	.-4      	; 0x244 <lcdbegin+0x54>
 248:	00 c0       	rjmp	.+0      	; 0x24a <lcdbegin+0x5a>
 24a:	00 00       	nop
 24c:	81 ee       	ldi	r24, 0xE1	; 225
 24e:	94 e0       	ldi	r25, 0x04	; 4
 250:	01 97       	sbiw	r24, 0x01	; 1
 252:	f1 f7       	brne	.-4      	; 0x250 <lcdbegin+0x60>
 254:	00 c0       	rjmp	.+0      	; 0x256 <lcdbegin+0x66>
 256:	00 00       	nop
 258:	80 91 0e 01 	lds	r24, 0x010E	; 0x80010e <__data_end>
 25c:	80 62       	ori	r24, 0x20	; 32
 25e:	28 98       	cbi	0x05, 0	; 5
 260:	8b b9       	out	0x0b, r24	; 11
 262:	29 98       	cbi	0x05, 1	; 5
 264:	83 ec       	ldi	r24, 0xC3	; 195
 266:	99 e0       	ldi	r25, 0x09	; 9
 268:	01 97       	sbiw	r24, 0x01	; 1
 26a:	f1 f7       	brne	.-4      	; 0x268 <lcdbegin+0x78>
 26c:	00 c0       	rjmp	.+0      	; 0x26e <lcdbegin+0x7e>
 26e:	00 00       	nop
 270:	29 9a       	sbi	0x05, 1	; 5
 272:	83 ec       	ldi	r24, 0xC3	; 195
 274:	99 e0       	ldi	r25, 0x09	; 9
 276:	01 97       	sbiw	r24, 0x01	; 1
 278:	f1 f7       	brne	.-4      	; 0x276 <lcdbegin+0x86>
 27a:	00 c0       	rjmp	.+0      	; 0x27c <lcdbegin+0x8c>
 27c:	00 00       	nop
 27e:	29 98       	cbi	0x05, 1	; 5
 280:	83 ec       	ldi	r24, 0xC3	; 195
 282:	99 e0       	ldi	r25, 0x09	; 9
 284:	01 97       	sbiw	r24, 0x01	; 1
 286:	f1 f7       	brne	.-4      	; 0x284 <lcdbegin+0x94>
 288:	00 c0       	rjmp	.+0      	; 0x28a <lcdbegin+0x9a>
 28a:	00 00       	nop
 28c:	89 ef       	ldi	r24, 0xF9	; 249
 28e:	90 e0       	ldi	r25, 0x00	; 0
 290:	01 97       	sbiw	r24, 0x01	; 1
 292:	f1 f7       	brne	.-4      	; 0x290 <lcdbegin+0xa0>
 294:	00 c0       	rjmp	.+0      	; 0x296 <lcdbegin+0xa6>
 296:	00 00       	nop
 298:	80 91 0e 01 	lds	r24, 0x010E	; 0x80010e <__data_end>
 29c:	80 62       	ori	r24, 0x20	; 32
 29e:	28 98       	cbi	0x05, 0	; 5
 2a0:	8b b9       	out	0x0b, r24	; 11
 2a2:	29 98       	cbi	0x05, 1	; 5
 2a4:	83 ec       	ldi	r24, 0xC3	; 195
 2a6:	99 e0       	ldi	r25, 0x09	; 9
 2a8:	01 97       	sbiw	r24, 0x01	; 1
 2aa:	f1 f7       	brne	.-4      	; 0x2a8 <lcdbegin+0xb8>
 2ac:	00 c0       	rjmp	.+0      	; 0x2ae <lcdbegin+0xbe>
 2ae:	00 00       	nop
 2b0:	29 9a       	sbi	0x05, 1	; 5
 2b2:	83 ec       	ldi	r24, 0xC3	; 195
 2b4:	99 e0       	ldi	r25, 0x09	; 9
 2b6:	01 97       	sbiw	r24, 0x01	; 1
 2b8:	f1 f7       	brne	.-4      	; 0x2b6 <lcdbegin+0xc6>
 2ba:	00 c0       	rjmp	.+0      	; 0x2bc <lcdbegin+0xcc>
 2bc:	00 00       	nop
 2be:	29 98       	cbi	0x05, 1	; 5
 2c0:	83 ec       	ldi	r24, 0xC3	; 195
 2c2:	99 e0       	ldi	r25, 0x09	; 9
 2c4:	01 97       	sbiw	r24, 0x01	; 1
 2c6:	f1 f7       	brne	.-4      	; 0x2c4 <lcdbegin+0xd4>
 2c8:	00 c0       	rjmp	.+0      	; 0x2ca <lcdbegin+0xda>
 2ca:	00 00       	nop
 2cc:	84 e0       	ldi	r24, 0x04	; 4
 2ce:	80 93 10 01 	sts	0x0110, r24	; 0x800110 <_displaycontrol>
 2d2:	28 98       	cbi	0x05, 0	; 5
 2d4:	8c e0       	ldi	r24, 0x0C	; 12
 2d6:	8b b9       	out	0x0b, r24	; 11
 2d8:	29 98       	cbi	0x05, 1	; 5
 2da:	83 ec       	ldi	r24, 0xC3	; 195
 2dc:	99 e0       	ldi	r25, 0x09	; 9
 2de:	01 97       	sbiw	r24, 0x01	; 1
 2e0:	f1 f7       	brne	.-4      	; 0x2de <lcdbegin+0xee>
 2e2:	00 c0       	rjmp	.+0      	; 0x2e4 <lcdbegin+0xf4>
 2e4:	00 00       	nop
 2e6:	29 9a       	sbi	0x05, 1	; 5
 2e8:	83 ec       	ldi	r24, 0xC3	; 195
 2ea:	99 e0       	ldi	r25, 0x09	; 9
 2ec:	01 97       	sbiw	r24, 0x01	; 1
 2ee:	f1 f7       	brne	.-4      	; 0x2ec <lcdbegin+0xfc>
 2f0:	00 c0       	rjmp	.+0      	; 0x2f2 <lcdbegin+0x102>
 2f2:	00 00       	nop
 2f4:	29 98       	cbi	0x05, 1	; 5
 2f6:	83 ec       	ldi	r24, 0xC3	; 195
 2f8:	99 e0       	ldi	r25, 0x09	; 9
 2fa:	01 97       	sbiw	r24, 0x01	; 1
 2fc:	f1 f7       	brne	.-4      	; 0x2fa <lcdbegin+0x10a>
 2fe:	00 c0       	rjmp	.+0      	; 0x300 <lcdbegin+0x110>
 300:	00 00       	nop
 302:	28 98       	cbi	0x05, 0	; 5
 304:	81 e0       	ldi	r24, 0x01	; 1
 306:	8b b9       	out	0x0b, r24	; 11
 308:	29 98       	cbi	0x05, 1	; 5
 30a:	83 ec       	ldi	r24, 0xC3	; 195
 30c:	99 e0       	ldi	r25, 0x09	; 9
 30e:	01 97       	sbiw	r24, 0x01	; 1
 310:	f1 f7       	brne	.-4      	; 0x30e <lcdbegin+0x11e>
 312:	00 c0       	rjmp	.+0      	; 0x314 <lcdbegin+0x124>
 314:	00 00       	nop
 316:	29 9a       	sbi	0x05, 1	; 5
 318:	83 ec       	ldi	r24, 0xC3	; 195
 31a:	99 e0       	ldi	r25, 0x09	; 9
 31c:	01 97       	sbiw	r24, 0x01	; 1
 31e:	f1 f7       	brne	.-4      	; 0x31c <lcdbegin+0x12c>
 320:	00 c0       	rjmp	.+0      	; 0x322 <lcdbegin+0x132>
 322:	00 00       	nop
 324:	29 98       	cbi	0x05, 1	; 5
 326:	83 ec       	ldi	r24, 0xC3	; 195
 328:	99 e0       	ldi	r25, 0x09	; 9
 32a:	01 97       	sbiw	r24, 0x01	; 1
 32c:	f1 f7       	brne	.-4      	; 0x32a <lcdbegin+0x13a>
 32e:	00 c0       	rjmp	.+0      	; 0x330 <lcdbegin+0x140>
 330:	00 00       	nop
 332:	83 ef       	ldi	r24, 0xF3	; 243
 334:	91 e0       	ldi	r25, 0x01	; 1
 336:	01 97       	sbiw	r24, 0x01	; 1
 338:	f1 f7       	brne	.-4      	; 0x336 <lcdbegin+0x146>
 33a:	00 c0       	rjmp	.+0      	; 0x33c <lcdbegin+0x14c>
 33c:	00 00       	nop
 33e:	82 e0       	ldi	r24, 0x02	; 2
 340:	80 93 0f 01 	sts	0x010F, r24	; 0x80010f <_displaymode>
 344:	28 98       	cbi	0x05, 0	; 5
 346:	86 e0       	ldi	r24, 0x06	; 6
 348:	8b b9       	out	0x0b, r24	; 11
 34a:	29 98       	cbi	0x05, 1	; 5
 34c:	83 ec       	ldi	r24, 0xC3	; 195
 34e:	99 e0       	ldi	r25, 0x09	; 9
 350:	01 97       	sbiw	r24, 0x01	; 1
 352:	f1 f7       	brne	.-4      	; 0x350 <lcdbegin+0x160>
 354:	00 c0       	rjmp	.+0      	; 0x356 <lcdbegin+0x166>
 356:	00 00       	nop
 358:	29 9a       	sbi	0x05, 1	; 5
 35a:	83 ec       	ldi	r24, 0xC3	; 195
 35c:	99 e0       	ldi	r25, 0x09	; 9
 35e:	01 97       	sbiw	r24, 0x01	; 1
 360:	f1 f7       	brne	.-4      	; 0x35e <lcdbegin+0x16e>
 362:	00 c0       	rjmp	.+0      	; 0x364 <lcdbegin+0x174>
 364:	00 00       	nop
 366:	29 98       	cbi	0x05, 1	; 5
 368:	83 ec       	ldi	r24, 0xC3	; 195
 36a:	99 e0       	ldi	r25, 0x09	; 9
 36c:	01 97       	sbiw	r24, 0x01	; 1
 36e:	f1 f7       	brne	.-4      	; 0x36c <lcdbegin+0x17c>
 370:	00 c0       	rjmp	.+0      	; 0x372 <lcdbegin+0x182>
 372:	00 00       	nop
 374:	08 95       	ret
 376:	80 e1       	ldi	r24, 0x10	; 16
 378:	80 93 0e 01 	sts	0x010E, r24	; 0x80010e <__data_end>
 37c:	3f cf       	rjmp	.-386    	; 0x1fc <lcdbegin+0xc>

0000037e <lcdsetCursor>:
 37e:	62 30       	cpi	r22, 0x02	; 2
 380:	21 f1       	breq	.+72     	; 0x3ca <lcdsetCursor+0x4c>
 382:	63 30       	cpi	r22, 0x03	; 3
 384:	f9 f0       	breq	.+62     	; 0x3c4 <lcdsetCursor+0x46>
 386:	61 30       	cpi	r22, 0x01	; 1
 388:	d9 f0       	breq	.+54     	; 0x3c0 <lcdsetCursor+0x42>
 38a:	90 e0       	ldi	r25, 0x00	; 0
 38c:	89 0f       	add	r24, r25
 38e:	80 68       	ori	r24, 0x80	; 128
 390:	28 98       	cbi	0x05, 0	; 5
 392:	8b b9       	out	0x0b, r24	; 11
 394:	29 98       	cbi	0x05, 1	; 5
 396:	83 ec       	ldi	r24, 0xC3	; 195
 398:	99 e0       	ldi	r25, 0x09	; 9
 39a:	01 97       	sbiw	r24, 0x01	; 1
 39c:	f1 f7       	brne	.-4      	; 0x39a <lcdsetCursor+0x1c>
 39e:	00 c0       	rjmp	.+0      	; 0x3a0 <lcdsetCursor+0x22>
 3a0:	00 00       	nop
 3a2:	29 9a       	sbi	0x05, 1	; 5
 3a4:	83 ec       	ldi	r24, 0xC3	; 195
 3a6:	99 e0       	ldi	r25, 0x09	; 9
 3a8:	01 97       	sbiw	r24, 0x01	; 1
 3aa:	f1 f7       	brne	.-4      	; 0x3a8 <lcdsetCursor+0x2a>
 3ac:	00 c0       	rjmp	.+0      	; 0x3ae <lcdsetCursor+0x30>
 3ae:	00 00       	nop
 3b0:	29 98       	cbi	0x05, 1	; 5
 3b2:	83 ec       	ldi	r24, 0xC3	; 195
 3b4:	99 e0       	ldi	r25, 0x09	; 9
 3b6:	01 97       	sbiw	r24, 0x01	; 1
 3b8:	f1 f7       	brne	.-4      	; 0x3b6 <lcdsetCursor+0x38>
 3ba:	00 c0       	rjmp	.+0      	; 0x3bc <lcdsetCursor+0x3e>
 3bc:	00 00       	nop
 3be:	08 95       	ret
 3c0:	90 e4       	ldi	r25, 0x40	; 64
 3c2:	e4 cf       	rjmp	.-56     	; 0x38c <lcdsetCursor+0xe>
 3c4:	90 e4       	ldi	r25, 0x40	; 64
 3c6:	98 0f       	add	r25, r24
 3c8:	e1 cf       	rjmp	.-62     	; 0x38c <lcdsetCursor+0xe>
 3ca:	98 2f       	mov	r25, r24
 3cc:	df cf       	rjmp	.-66     	; 0x38c <lcdsetCursor+0xe>

000003ce <lcdwrite>:
 3ce:	28 9a       	sbi	0x05, 0	; 5
	PORTB &= ~(1<<1);
	_delay_ms(10);
}

static void lcdwrite8bits(uint8_t value) {
	PORTD = value;
 3d0:	8b b9       	out	0x0b, r24	; 11
}
extern inline void lcdcommand(uint8_t value) { 
	lcdsend(value, false); 
}
static void pulseEnable() {
	PORTB &= ~(1<<1);
 3d2:	29 98       	cbi	0x05, 1	; 5
	#else
		//round up by default
		__ticks_dc = (uint32_t)(ceil(fabs(__tmp)));
	#endif

	__builtin_avr_delay_cycles(__ticks_dc);
 3d4:	83 ec       	ldi	r24, 0xC3	; 195
 3d6:	99 e0       	ldi	r25, 0x09	; 9
 3d8:	01 97       	sbiw	r24, 0x01	; 1
 3da:	f1 f7       	brne	.-4      	; 0x3d8 <lcdwrite+0xa>
 3dc:	00 c0       	rjmp	.+0      	; 0x3de <lcdwrite+0x10>
 3de:	00 00       	nop
	_delay_ms(10);
	PORTB |= 1<<1;
 3e0:	29 9a       	sbi	0x05, 1	; 5
 3e2:	83 ec       	ldi	r24, 0xC3	; 195
 3e4:	99 e0       	ldi	r25, 0x09	; 9
 3e6:	01 97       	sbiw	r24, 0x01	; 1
 3e8:	f1 f7       	brne	.-4      	; 0x3e6 <lcdwrite+0x18>
 3ea:	00 c0       	rjmp	.+0      	; 0x3ec <lcdwrite+0x1e>
 3ec:	00 00       	nop
	_delay_ms(10);
	PORTB &= ~(1<<1);
 3ee:	29 98       	cbi	0x05, 1	; 5
 3f0:	83 ec       	ldi	r24, 0xC3	; 195
 3f2:	99 e0       	ldi	r25, 0x09	; 9
 3f4:	01 97       	sbiw	r24, 0x01	; 1
 3f6:	f1 f7       	brne	.-4      	; 0x3f4 <lcdwrite+0x26>
 3f8:	00 c0       	rjmp	.+0      	; 0x3fa <lcdwrite+0x2c>
 3fa:	00 00       	nop
 3fc:	08 95       	ret

000003fe <main>:
#include "timer.h"
#include "lcd.h"
#include "ascii.h"

int main(void)
{
 3fe:	cf 93       	push	r28
 400:	df 93       	push	r29
 402:	00 d0       	rcall	.+0      	; 0x404 <__LOCK_REGION_LENGTH__+0x4>
 404:	1f 92       	push	r1
 406:	cd b7       	in	r28, 0x3d	; 61
 408:	de b7       	in	r29, 0x3e	; 62
	lcdbegin(16,2);
 40a:	62 e0       	ldi	r22, 0x02	; 2
 40c:	80 e1       	ldi	r24, 0x10	; 16
 40e:	0e 94 f8 00 	call	0x1f0	; 0x1f0 <lcdbegin>
	Cprint(lcdwrite,"Hello world!");
 412:	60 e0       	ldi	r22, 0x00	; 0
 414:	71 e0       	ldi	r23, 0x01	; 1
 416:	87 ee       	ldi	r24, 0xE7	; 231
 418:	91 e0       	ldi	r25, 0x01	; 1
 41a:	0e 94 cf 00 	call	0x19e	; 0x19e <Cprint>
	initTime();
 41e:	0e 94 30 02 	call	0x460	; 0x460 <initTime>
	sei();
 422:	78 94       	sei
	while (1)
	{
		lcdsetCursor(0,1);
		unsigned char arr[3];
		print(lcdwrite,arr,int8_2_char(arr,(uint8_t)(Time()/1000)));
 424:	88 ee       	ldi	r24, 0xE8	; 232
 426:	c8 2e       	mov	r12, r24
 428:	83 e0       	ldi	r24, 0x03	; 3
 42a:	d8 2e       	mov	r13, r24
 42c:	e1 2c       	mov	r14, r1
 42e:	f1 2c       	mov	r15, r1
	Cprint(lcdwrite,"Hello world!");
	initTime();
	sei();
	while (1)
	{
		lcdsetCursor(0,1);
 430:	61 e0       	ldi	r22, 0x01	; 1
 432:	80 e0       	ldi	r24, 0x00	; 0
 434:	0e 94 bf 01 	call	0x37e	; 0x37e <lcdsetCursor>
		unsigned char arr[3];
		print(lcdwrite,arr,int8_2_char(arr,(uint8_t)(Time()/1000)));
 438:	0e 94 3f 02 	call	0x47e	; 0x47e <Time>
 43c:	a7 01       	movw	r20, r14
 43e:	96 01       	movw	r18, r12
 440:	0e 94 6d 02 	call	0x4da	; 0x4da <__udivmodsi4>
 444:	62 2f       	mov	r22, r18
 446:	ce 01       	movw	r24, r28
 448:	01 96       	adiw	r24, 0x01	; 1
 44a:	0e 94 79 00 	call	0xf2	; 0xf2 <int8_2_char>
 44e:	ac 01       	movw	r20, r24
 450:	be 01       	movw	r22, r28
 452:	6f 5f       	subi	r22, 0xFF	; 255
 454:	7f 4f       	sbci	r23, 0xFF	; 255
 456:	87 ee       	ldi	r24, 0xE7	; 231
 458:	91 e0       	ldi	r25, 0x01	; 1
 45a:	0e 94 ab 00 	call	0x156	; 0x156 <print>
 45e:	e8 cf       	rjmp	.-48     	; 0x430 <__LOCK_REGION_LENGTH__+0x30>

00000460 <initTime>:
	return milliSeconds;
}
// resets the timer 
extern void timerReset(){
	TCNT1 = 0;
	milliSeconds = 0;
 460:	e1 e8       	ldi	r30, 0x81	; 129
 462:	f0 e0       	ldi	r31, 0x00	; 0
 464:	80 81       	ld	r24, Z
 466:	89 60       	ori	r24, 0x09	; 9
 468:	80 83       	st	Z, r24
 46a:	80 e4       	ldi	r24, 0x40	; 64
 46c:	9f e1       	ldi	r25, 0x1F	; 31
 46e:	90 93 89 00 	sts	0x0089, r25	; 0x800089 <__DATA_REGION_ORIGIN__+0x29>
 472:	80 93 88 00 	sts	0x0088, r24	; 0x800088 <__DATA_REGION_ORIGIN__+0x28>
 476:	82 e0       	ldi	r24, 0x02	; 2
 478:	80 93 6f 00 	sts	0x006F, r24	; 0x80006f <__DATA_REGION_ORIGIN__+0xf>
 47c:	08 95       	ret

0000047e <Time>:
 47e:	60 91 11 01 	lds	r22, 0x0111	; 0x800111 <milliSeconds>
 482:	70 91 12 01 	lds	r23, 0x0112	; 0x800112 <milliSeconds+0x1>
 486:	80 91 13 01 	lds	r24, 0x0113	; 0x800113 <milliSeconds+0x2>
 48a:	90 91 14 01 	lds	r25, 0x0114	; 0x800114 <milliSeconds+0x3>
 48e:	08 95       	ret

00000490 <__vector_11>:
}
ISR(TIMER1_COMPA_vect){
 490:	1f 92       	push	r1
 492:	0f 92       	push	r0
 494:	0f b6       	in	r0, 0x3f	; 63
 496:	0f 92       	push	r0
 498:	11 24       	eor	r1, r1
 49a:	8f 93       	push	r24
 49c:	9f 93       	push	r25
 49e:	af 93       	push	r26
 4a0:	bf 93       	push	r27
	milliSeconds++; // increnment the seconds
 4a2:	80 91 11 01 	lds	r24, 0x0111	; 0x800111 <milliSeconds>
 4a6:	90 91 12 01 	lds	r25, 0x0112	; 0x800112 <milliSeconds+0x1>
 4aa:	a0 91 13 01 	lds	r26, 0x0113	; 0x800113 <milliSeconds+0x2>
 4ae:	b0 91 14 01 	lds	r27, 0x0114	; 0x800114 <milliSeconds+0x3>
 4b2:	01 96       	adiw	r24, 0x01	; 1
 4b4:	a1 1d       	adc	r26, r1
 4b6:	b1 1d       	adc	r27, r1
 4b8:	80 93 11 01 	sts	0x0111, r24	; 0x800111 <milliSeconds>
 4bc:	90 93 12 01 	sts	0x0112, r25	; 0x800112 <milliSeconds+0x1>
 4c0:	a0 93 13 01 	sts	0x0113, r26	; 0x800113 <milliSeconds+0x2>
 4c4:	b0 93 14 01 	sts	0x0114, r27	; 0x800114 <milliSeconds+0x3>
 4c8:	bf 91       	pop	r27
 4ca:	af 91       	pop	r26
 4cc:	9f 91       	pop	r25
 4ce:	8f 91       	pop	r24
 4d0:	0f 90       	pop	r0
 4d2:	0f be       	out	0x3f, r0	; 63
 4d4:	0f 90       	pop	r0
 4d6:	1f 90       	pop	r1
 4d8:	18 95       	reti

000004da <__udivmodsi4>:
 4da:	a1 e2       	ldi	r26, 0x21	; 33
 4dc:	1a 2e       	mov	r1, r26
 4de:	aa 1b       	sub	r26, r26
 4e0:	bb 1b       	sub	r27, r27
 4e2:	fd 01       	movw	r30, r26
 4e4:	0d c0       	rjmp	.+26     	; 0x500 <__udivmodsi4_ep>

000004e6 <__udivmodsi4_loop>:
 4e6:	aa 1f       	adc	r26, r26
 4e8:	bb 1f       	adc	r27, r27
 4ea:	ee 1f       	adc	r30, r30
 4ec:	ff 1f       	adc	r31, r31
 4ee:	a2 17       	cp	r26, r18
 4f0:	b3 07       	cpc	r27, r19
 4f2:	e4 07       	cpc	r30, r20
 4f4:	f5 07       	cpc	r31, r21
 4f6:	20 f0       	brcs	.+8      	; 0x500 <__udivmodsi4_ep>
 4f8:	a2 1b       	sub	r26, r18
 4fa:	b3 0b       	sbc	r27, r19
 4fc:	e4 0b       	sbc	r30, r20
 4fe:	f5 0b       	sbc	r31, r21

00000500 <__udivmodsi4_ep>:
 500:	66 1f       	adc	r22, r22
 502:	77 1f       	adc	r23, r23
 504:	88 1f       	adc	r24, r24
 506:	99 1f       	adc	r25, r25
 508:	1a 94       	dec	r1
 50a:	69 f7       	brne	.-38     	; 0x4e6 <__udivmodsi4_loop>
 50c:	60 95       	com	r22
 50e:	70 95       	com	r23
 510:	80 95       	com	r24
 512:	90 95       	com	r25
 514:	9b 01       	movw	r18, r22
 516:	ac 01       	movw	r20, r24
 518:	bd 01       	movw	r22, r26
 51a:	cf 01       	movw	r24, r30
 51c:	08 95       	ret

0000051e <_exit>:
 51e:	f8 94       	cli

00000520 <__stop_program>:
 520:	ff cf       	rjmp	.-2      	; 0x520 <__stop_program>
