
oven.elf:     file format elf32-avr

Sections:
Idx Name          Size      VMA       LMA       File off  Algn
  0 .data         000000fa  00800100  00001820  000018b4  2**0
                  CONTENTS, ALLOC, LOAD, DATA
  1 .text         00001820  00000000  00000000  00000094  2**1
                  CONTENTS, ALLOC, LOAD, READONLY, CODE
  2 .bss          00000042  008001fa  008001fa  000019ae  2**0
                  ALLOC
  3 .comment      0000005c  00000000  00000000  000019ae  2**0
                  CONTENTS, READONLY
  4 .note.gnu.avr.deviceinfo 00000040  00000000  00000000  00001a0c  2**2
                  CONTENTS, READONLY
  5 .debug_aranges 00000268  00000000  00000000  00001a4c  2**0
                  CONTENTS, READONLY, DEBUGGING
  6 .debug_info   00006acb  00000000  00000000  00001cb4  2**0
                  CONTENTS, READONLY, DEBUGGING
  7 .debug_abbrev 000016c4  00000000  00000000  0000877f  2**0
                  CONTENTS, READONLY, DEBUGGING
  8 .debug_line   00002b4d  00000000  00000000  00009e43  2**0
                  CONTENTS, READONLY, DEBUGGING
  9 .debug_frame  0000063c  00000000  00000000  0000c990  2**2
                  CONTENTS, READONLY, DEBUGGING
 10 .debug_str    000008d9  00000000  00000000  0000cfcc  2**0
                  CONTENTS, READONLY, DEBUGGING
 11 .debug_loc    00007784  00000000  00000000  0000d8a5  2**0
                  CONTENTS, READONLY, DEBUGGING
 12 .debug_ranges 00000458  00000000  00000000  00015029  2**0
                  CONTENTS, READONLY, DEBUGGING

Disassembly of section .text:

00000000 <__vectors>:
       0:	0c 94 5a 00 	jmp	0xb4	; 0xb4 <__ctors_end>
       4:	0c 94 77 00 	jmp	0xee	; 0xee <__bad_interrupt>
       8:	0c 94 77 00 	jmp	0xee	; 0xee <__bad_interrupt>
       c:	0c 94 77 00 	jmp	0xee	; 0xee <__bad_interrupt>
      10:	0c 94 77 00 	jmp	0xee	; 0xee <__bad_interrupt>
      14:	0c 94 77 00 	jmp	0xee	; 0xee <__bad_interrupt>
      18:	0c 94 77 00 	jmp	0xee	; 0xee <__bad_interrupt>
      1c:	0c 94 77 00 	jmp	0xee	; 0xee <__bad_interrupt>
      20:	0c 94 77 00 	jmp	0xee	; 0xee <__bad_interrupt>
      24:	0c 94 77 00 	jmp	0xee	; 0xee <__bad_interrupt>
      28:	0c 94 77 00 	jmp	0xee	; 0xee <__bad_interrupt>
      2c:	0c 94 51 08 	jmp	0x10a2	; 0x10a2 <__vector_11>
      30:	0c 94 77 00 	jmp	0xee	; 0xee <__bad_interrupt>
      34:	0c 94 77 00 	jmp	0xee	; 0xee <__bad_interrupt>
      38:	0c 94 77 00 	jmp	0xee	; 0xee <__bad_interrupt>
      3c:	0c 94 77 00 	jmp	0xee	; 0xee <__bad_interrupt>
      40:	0c 94 77 00 	jmp	0xee	; 0xee <__bad_interrupt>
      44:	0c 94 77 00 	jmp	0xee	; 0xee <__bad_interrupt>
      48:	0c 94 77 00 	jmp	0xee	; 0xee <__bad_interrupt>
      4c:	0c 94 77 00 	jmp	0xee	; 0xee <__bad_interrupt>
      50:	0c 94 77 00 	jmp	0xee	; 0xee <__bad_interrupt>
      54:	0c 94 77 00 	jmp	0xee	; 0xee <__bad_interrupt>
      58:	0c 94 77 00 	jmp	0xee	; 0xee <__bad_interrupt>
      5c:	0c 94 77 00 	jmp	0xee	; 0xee <__bad_interrupt>
      60:	0c 94 77 00 	jmp	0xee	; 0xee <__bad_interrupt>
      64:	0c 94 77 00 	jmp	0xee	; 0xee <__bad_interrupt>
      68:	0c 94 77 00 	jmp	0xee	; 0xee <__bad_interrupt>
      6c:	0c 94 77 00 	jmp	0xee	; 0xee <__bad_interrupt>
      70:	0c 94 77 00 	jmp	0xee	; 0xee <__bad_interrupt>
      74:	0c 94 77 00 	jmp	0xee	; 0xee <__bad_interrupt>
      78:	0c 94 77 00 	jmp	0xee	; 0xee <__bad_interrupt>
      7c:	0c 94 77 00 	jmp	0xee	; 0xee <__bad_interrupt>
      80:	0c 94 77 00 	jmp	0xee	; 0xee <__bad_interrupt>
      84:	0c 94 77 00 	jmp	0xee	; 0xee <__bad_interrupt>
      88:	0c 94 77 00 	jmp	0xee	; 0xee <__bad_interrupt>
      8c:	0c 94 77 00 	jmp	0xee	; 0xee <__bad_interrupt>
      90:	0c 94 77 00 	jmp	0xee	; 0xee <__bad_interrupt>
      94:	0c 94 77 00 	jmp	0xee	; 0xee <__bad_interrupt>
      98:	0c 94 77 00 	jmp	0xee	; 0xee <__bad_interrupt>
      9c:	0c 94 77 00 	jmp	0xee	; 0xee <__bad_interrupt>
      a0:	0c 94 77 00 	jmp	0xee	; 0xee <__bad_interrupt>
      a4:	0c 94 77 00 	jmp	0xee	; 0xee <__bad_interrupt>
      a8:	0c 94 77 00 	jmp	0xee	; 0xee <__bad_interrupt>
      ac:	0c 94 77 00 	jmp	0xee	; 0xee <__bad_interrupt>
      b0:	0c 94 77 00 	jmp	0xee	; 0xee <__bad_interrupt>

000000b4 <__ctors_end>:
      b4:	11 24       	eor	r1, r1
      b6:	1f be       	out	0x3f, r1	; 63
      b8:	cf ef       	ldi	r28, 0xFF	; 255
      ba:	d8 e0       	ldi	r29, 0x08	; 8
      bc:	de bf       	out	0x3e, r29	; 62
      be:	cd bf       	out	0x3d, r28	; 61

000000c0 <__do_copy_data>:
      c0:	11 e0       	ldi	r17, 0x01	; 1
      c2:	a0 e0       	ldi	r26, 0x00	; 0
      c4:	b1 e0       	ldi	r27, 0x01	; 1
      c6:	e0 e2       	ldi	r30, 0x20	; 32
      c8:	f8 e1       	ldi	r31, 0x18	; 24
      ca:	02 c0       	rjmp	.+4      	; 0xd0 <__do_copy_data+0x10>
      cc:	05 90       	lpm	r0, Z+
      ce:	0d 92       	st	X+, r0
      d0:	aa 3f       	cpi	r26, 0xFA	; 250
      d2:	b1 07       	cpc	r27, r17
      d4:	d9 f7       	brne	.-10     	; 0xcc <__do_copy_data+0xc>

000000d6 <__do_clear_bss>:
      d6:	22 e0       	ldi	r18, 0x02	; 2
      d8:	aa ef       	ldi	r26, 0xFA	; 250
      da:	b1 e0       	ldi	r27, 0x01	; 1
      dc:	01 c0       	rjmp	.+2      	; 0xe0 <.do_clear_bss_start>

000000de <.do_clear_bss_loop>:
      de:	1d 92       	st	X+, r1

000000e0 <.do_clear_bss_start>:
      e0:	ac 33       	cpi	r26, 0x3C	; 60
      e2:	b2 07       	cpc	r27, r18
      e4:	e1 f7       	brne	.-8      	; 0xde <.do_clear_bss_loop>
      e6:	0e 94 fe 07 	call	0xffc	; 0xffc <main>
      ea:	0c 94 0e 0c 	jmp	0x181c	; 0x181c <_exit>

000000ee <__bad_interrupt>:
      ee:	0c 94 00 00 	jmp	0	; 0x0 <__vectors>

000000f2 <InitADC>:
#include "analog.h"

void InitADC()
{
	// Select Vref=AVcc
	ADMUX |= (1<<REFS0);
      f2:	ec e7       	ldi	r30, 0x7C	; 124
      f4:	f0 e0       	ldi	r31, 0x00	; 0
      f6:	80 81       	ld	r24, Z
      f8:	80 64       	ori	r24, 0x40	; 64
      fa:	80 83       	st	Z, r24
	//set prescaller to 128 and enable ADC
	ADCSRA |= (1<<ADPS1)|(1<<ADEN);
      fc:	ea e7       	ldi	r30, 0x7A	; 122
      fe:	f0 e0       	ldi	r31, 0x00	; 0
     100:	80 81       	ld	r24, Z
     102:	82 68       	ori	r24, 0x82	; 130
     104:	80 83       	st	Z, r24
     106:	08 95       	ret

00000108 <check>:
#include "common.h"
#include "timer.h"


int8_t check(){
	if(!((PINB & (1 << 3)) && (PINB & (1 << 4)))){
     108:	1b 9b       	sbis	0x03, 3	; 3
     10a:	02 c0       	rjmp	.+4      	; 0x110 <check+0x8>
     10c:	1c 99       	sbic	0x03, 4	; 3
     10e:	13 c0       	rjmp	.+38     	; 0x136 <check+0x2e>
		if(!(PINB & (1 << 3))){
     110:	1b 99       	sbic	0x03, 3	; 3
     112:	0c c0       	rjmp	.+24     	; 0x12c <check+0x24>
			while(!(PINB & (1 << 3) && PINB & (1 << 4)));
     114:	1b 9b       	sbis	0x03, 3	; 3
     116:	fe cf       	rjmp	.-4      	; 0x114 <check+0xc>
     118:	1c 9b       	sbis	0x03, 4	; 3
     11a:	fc cf       	rjmp	.-8      	; 0x114 <check+0xc>
    milliseconds can be achieved.
 */
void
_delay_loop_2(uint16_t __count)
{
	__asm__ volatile (
     11c:	88 e8       	ldi	r24, 0x88	; 136
     11e:	93 e1       	ldi	r25, 0x13	; 19
     120:	01 97       	sbiw	r24, 0x01	; 1
     122:	f1 f7       	brne	.-4      	; 0x120 <check+0x18>
			_delay_loop_2(5000);
			return 1;
     124:	81 e0       	ldi	r24, 0x01	; 1
     126:	08 95       	ret
		} else {
			while(!(PINB & (1 << 3) && PINB & (1 << 4)));
     128:	1c 99       	sbic	0x03, 4	; 3
     12a:	07 c0       	rjmp	.+14     	; 0x13a <check+0x32>
     12c:	1b 99       	sbic	0x03, 3	; 3
     12e:	fc cf       	rjmp	.-8      	; 0x128 <check+0x20>
     130:	1b 9b       	sbis	0x03, 3	; 3
     132:	fc cf       	rjmp	.-8      	; 0x12c <check+0x24>
     134:	f9 cf       	rjmp	.-14     	; 0x128 <check+0x20>
			_delay_loop_2(5000);
			return -1;
		}
	}
	return 0;
     136:	80 e0       	ldi	r24, 0x00	; 0
}
     138:	08 95       	ret
     13a:	88 e8       	ldi	r24, 0x88	; 136
     13c:	93 e1       	ldi	r25, 0x13	; 19
     13e:	01 97       	sbiw	r24, 0x01	; 1
     140:	f1 f7       	brne	.-4      	; 0x13e <check+0x36>
     142:	8f ef       	ldi	r24, 0xFF	; 255
     144:	08 95       	ret

00000146 <going>:

int8_t going(){
     146:	0f 93       	push	r16
     148:	1f 93       	push	r17
     14a:	cf 93       	push	r28
	timerReset();
     14c:	0e 94 44 08 	call	0x1088	; 0x1088 <timerReset>
	int8_t i = 0;
     150:	c0 e0       	ldi	r28, 0x00	; 0
     152:	08 e8       	ldi	r16, 0x88	; 136
     154:	13 e1       	ldi	r17, 0x13	; 19
	while(Time() < 35 )
     156:	0e 94 3b 08 	call	0x1076	; 0x1076 <Time>
     15a:	63 32       	cpi	r22, 0x23	; 35
     15c:	71 05       	cpc	r23, r1
     15e:	81 05       	cpc	r24, r1
     160:	91 05       	cpc	r25, r1
     162:	b0 f4       	brcc	.+44     	; 0x190 <going+0x4a>
#include "common.h"
#include "timer.h"


int8_t check(){
	if(!((PINB & (1 << 3)) && (PINB & (1 << 4)))){
     164:	1b 9b       	sbis	0x03, 3	; 3
     166:	02 c0       	rjmp	.+4      	; 0x16c <going+0x26>
     168:	1c 99       	sbic	0x03, 4	; 3
     16a:	20 c0       	rjmp	.+64     	; 0x1ac <going+0x66>
		if(!(PINB & (1 << 3))){
     16c:	1b 99       	sbic	0x03, 3	; 3
     16e:	19 c0       	rjmp	.+50     	; 0x1a2 <going+0x5c>
			while(!(PINB & (1 << 3) && PINB & (1 << 4)));
     170:	1b 9b       	sbis	0x03, 3	; 3
     172:	fe cf       	rjmp	.-4      	; 0x170 <going+0x2a>
     174:	1c 9b       	sbis	0x03, 4	; 3
     176:	fc cf       	rjmp	.-8      	; 0x170 <going+0x2a>
     178:	c8 01       	movw	r24, r16
     17a:	01 97       	sbiw	r24, 0x01	; 1
     17c:	f1 f7       	brne	.-4      	; 0x17a <going+0x34>
     17e:	81 e0       	ldi	r24, 0x01	; 1

int8_t going(){
	timerReset();
	int8_t i = 0;
	while(Time() < 35 )
		i += check();
     180:	c8 0f       	add	r28, r24
}

int8_t going(){
	timerReset();
	int8_t i = 0;
	while(Time() < 35 )
     182:	0e 94 3b 08 	call	0x1076	; 0x1076 <Time>
     186:	63 32       	cpi	r22, 0x23	; 35
     188:	71 05       	cpc	r23, r1
     18a:	81 05       	cpc	r24, r1
     18c:	91 05       	cpc	r25, r1
     18e:	50 f3       	brcs	.-44     	; 0x164 <going+0x1e>
		i += check();
	
	if(i >= 2)
		return 1;
     190:	81 e0       	ldi	r24, 0x01	; 1
	timerReset();
	int8_t i = 0;
	while(Time() < 35 )
		i += check();
	
	if(i >= 2)
     192:	c2 30       	cpi	r28, 0x02	; 2
     194:	a4 f0       	brlt	.+40     	; 0x1be <going+0x78>
		return 1;
	else if(i <= -2)
		return -1;
	else 
		return 0;	
     196:	cf 91       	pop	r28
     198:	1f 91       	pop	r17
     19a:	0f 91       	pop	r16
     19c:	08 95       	ret
		if(!(PINB & (1 << 3))){
			while(!(PINB & (1 << 3) && PINB & (1 << 4)));
			_delay_loop_2(5000);
			return 1;
		} else {
			while(!(PINB & (1 << 3) && PINB & (1 << 4)));
     19e:	1c 99       	sbic	0x03, 4	; 3
     1a0:	08 c0       	rjmp	.+16     	; 0x1b2 <going+0x6c>
     1a2:	1b 99       	sbic	0x03, 3	; 3
     1a4:	fc cf       	rjmp	.-8      	; 0x19e <going+0x58>
     1a6:	1b 9b       	sbis	0x03, 3	; 3
     1a8:	fc cf       	rjmp	.-8      	; 0x1a2 <going+0x5c>
     1aa:	f9 cf       	rjmp	.-14     	; 0x19e <going+0x58>
#include "common.h"
#include "timer.h"


int8_t check(){
	if(!((PINB & (1 << 3)) && (PINB & (1 << 4)))){
     1ac:	80 e0       	ldi	r24, 0x00	; 0

int8_t going(){
	timerReset();
	int8_t i = 0;
	while(Time() < 35 )
		i += check();
     1ae:	c8 0f       	add	r28, r24
     1b0:	e8 cf       	rjmp	.-48     	; 0x182 <going+0x3c>
     1b2:	c8 01       	movw	r24, r16
     1b4:	01 97       	sbiw	r24, 0x01	; 1
     1b6:	f1 f7       	brne	.-4      	; 0x1b4 <going+0x6e>
     1b8:	8f ef       	ldi	r24, 0xFF	; 255
     1ba:	c8 0f       	add	r28, r24
     1bc:	e2 cf       	rjmp	.-60     	; 0x182 <going+0x3c>
	
	if(i >= 2)
		return 1;
	else if(i <= -2)
     1be:	cf 3f       	cpi	r28, 0xFF	; 255
     1c0:	0c f0       	brlt	.+2      	; 0x1c4 <going+0x7e>
     1c2:	80 e0       	ldi	r24, 0x00	; 0
     1c4:	81 95       	neg	r24
		return -1;
	else 
		return 0;	
     1c6:	cf 91       	pop	r28
     1c8:	1f 91       	pop	r17
     1ca:	0f 91       	pop	r16
     1cc:	08 95       	ret

000001ce <update_temp>:
	PORTC |= (1 << 5);
	_delay_ms(1);
	return ret;
}

bool update_temp(){ //returns true if somthing went wrong	
     1ce:	0f 93       	push	r16
     1d0:	1f 93       	push	r17

uint16_t sence_temp = 0;
uint16_t sence_temp_internal = 0;

static uint32_t spi(){
	PORTC &= ~(1 << 5);
     1d2:	45 98       	cbi	0x08, 5	; 8
	#else
		//round up by default
		__ticks_dc = (uint32_t)(ceil(fabs(__tmp)));
	#endif

	__builtin_avr_delay_cycles(__ticks_dc);
     1d4:	8f e9       	ldi	r24, 0x9F	; 159
     1d6:	9f e0       	ldi	r25, 0x0F	; 15
     1d8:	01 97       	sbiw	r24, 0x01	; 1
     1da:	f1 f7       	brne	.-4      	; 0x1d8 <update_temp+0xa>
     1dc:	00 c0       	rjmp	.+0      	; 0x1de <update_temp+0x10>
     1de:	00 00       	nop
     1e0:	30 e2       	ldi	r19, 0x20	; 32
	_delay_ms(1);
	uint32_t ret = 0;
     1e2:	80 e0       	ldi	r24, 0x00	; 0
     1e4:	90 e0       	ldi	r25, 0x00	; 0
     1e6:	dc 01       	movw	r26, r24
    can be achieved.
*/
void
_delay_loop_1(uint8_t __count)
{
	__asm__ volatile (
     1e8:	4a e0       	ldi	r20, 0x0A	; 10
	for(uint8_t i = 0;i < 32; i++){
		PORTE |= (1 << 2); // 100ns delays between each instruction
     1ea:	72 9a       	sbi	0x0e, 2	; 14
     1ec:	24 2f       	mov	r18, r20
     1ee:	2a 95       	dec	r18
     1f0:	f1 f7       	brne	.-4      	; 0x1ee <update_temp+0x20>
		_delay_loop_1(10);
		ret <<= 1;
     1f2:	88 0f       	add	r24, r24
     1f4:	99 1f       	adc	r25, r25
     1f6:	aa 1f       	adc	r26, r26
     1f8:	bb 1f       	adc	r27, r27
		ret |= (PINC >> 4) & 1;
     1fa:	26 b1       	in	r18, 0x06	; 6
     1fc:	22 95       	swap	r18
     1fe:	21 70       	andi	r18, 0x01	; 1
     200:	82 2b       	or	r24, r18
		PORTE &= ~(1 << 2);
     202:	72 98       	cbi	0x0e, 2	; 14
     204:	24 2f       	mov	r18, r20
     206:	2a 95       	dec	r18
     208:	f1 f7       	brne	.-4      	; 0x206 <update_temp+0x38>
     20a:	31 50       	subi	r19, 0x01	; 1

static uint32_t spi(){
	PORTC &= ~(1 << 5);
	_delay_ms(1);
	uint32_t ret = 0;
	for(uint8_t i = 0;i < 32; i++){
     20c:	71 f7       	brne	.-36     	; 0x1ea <update_temp+0x1c>
     20e:	ef e9       	ldi	r30, 0x9F	; 159
     210:	ff e0       	ldi	r31, 0x0F	; 15
     212:	31 97       	sbiw	r30, 0x01	; 1
     214:	f1 f7       	brne	.-4      	; 0x212 <update_temp+0x44>
     216:	00 c0       	rjmp	.+0      	; 0x218 <update_temp+0x4a>
     218:	00 00       	nop
		ret |= (PINC >> 4) & 1;
		PORTE &= ~(1 << 2);
		_delay_loop_1(10);
	}
	_delay_ms(1);
	PORTC |= (1 << 5);
     21a:	45 9a       	sbi	0x08, 5	; 8
     21c:	ef e9       	ldi	r30, 0x9F	; 159
     21e:	ff e0       	ldi	r31, 0x0F	; 15
     220:	31 97       	sbiw	r30, 0x01	; 1
     222:	f1 f7       	brne	.-4      	; 0x220 <update_temp+0x52>
     224:	00 c0       	rjmp	.+0      	; 0x226 <update_temp+0x58>
     226:	00 00       	nop
	return ret;
}

bool update_temp(){ //returns true if somthing went wrong	
	uint32_t dat = spi();
	sence_temp = (dat >> 18);
     228:	8c 01       	movw	r16, r24
     22a:	9d 01       	movw	r18, r26
     22c:	42 e1       	ldi	r20, 0x12	; 18
     22e:	36 95       	lsr	r19
     230:	27 95       	ror	r18
     232:	17 95       	ror	r17
     234:	07 95       	ror	r16
     236:	4a 95       	dec	r20
     238:	d1 f7       	brne	.-12     	; 0x22e <update_temp+0x60>
     23a:	10 93 fd 01 	sts	0x01FD, r17	; 0x8001fd <sence_temp+0x1>
     23e:	00 93 fc 01 	sts	0x01FC, r16	; 0x8001fc <sence_temp>
	sence_temp_internal = (dat >> 4)&0xfff;
     242:	8c 01       	movw	r16, r24
     244:	9d 01       	movw	r18, r26
     246:	54 e0       	ldi	r21, 0x04	; 4
     248:	36 95       	lsr	r19
     24a:	27 95       	ror	r18
     24c:	17 95       	ror	r17
     24e:	07 95       	ror	r16
     250:	5a 95       	dec	r21
     252:	d1 f7       	brne	.-12     	; 0x248 <update_temp+0x7a>
     254:	1f 70       	andi	r17, 0x0F	; 15
     256:	10 93 fb 01 	sts	0x01FB, r17	; 0x8001fb <__data_end+0x1>
     25a:	00 93 fa 01 	sts	0x01FA, r16	; 0x8001fa <__data_end>
	return ((dat >> 16) & 1);
	
     25e:	8a 2f       	mov	r24, r26
     260:	81 70       	andi	r24, 0x01	; 1
     262:	1f 91       	pop	r17
     264:	0f 91       	pop	r16
     266:	08 95       	ret

00000268 <get_temp>:
}

void rise(uint16_t* last,int16_t rise){
	if(Time()%500 <= 20){
		if(get_temp() < (*last)+(rise/50)){ // 100/4=25  100 is one deg on data.temp and 4 is one deg on the  sensor every haf a second we check so we mult by 2
			PORTC |= 4;
     268:	0e 94 e7 00 	call	0x1ce	; 0x1ce <update_temp>
     26c:	80 91 fc 01 	lds	r24, 0x01FC	; 0x8001fc <sence_temp>
     270:	90 91 fd 01 	lds	r25, 0x01FD	; 0x8001fd <sence_temp+0x1>
     274:	08 95       	ret

00000276 <update>:
		(*last) += rise/50;
		_delay_loop_2(20000);
	}
}

void update(struct tempC * data, void (*screen)(struct tempC)){ //rising or stable temp and time
     276:	2f 92       	push	r2
     278:	3f 92       	push	r3
     27a:	4f 92       	push	r4
     27c:	5f 92       	push	r5
     27e:	6f 92       	push	r6
     280:	7f 92       	push	r7
     282:	8f 92       	push	r8
     284:	9f 92       	push	r9
     286:	af 92       	push	r10
     288:	bf 92       	push	r11
     28a:	cf 92       	push	r12
     28c:	df 92       	push	r13
     28e:	ef 92       	push	r14
     290:	ff 92       	push	r15
     292:	0f 93       	push	r16
     294:	1f 93       	push	r17
     296:	cf 93       	push	r28
     298:	df 93       	push	r29
     29a:	00 d0       	rcall	.+0      	; 0x29c <update+0x26>
     29c:	00 d0       	rcall	.+0      	; 0x29e <update+0x28>
     29e:	cd b7       	in	r28, 0x3d	; 61
     2a0:	de b7       	in	r29, 0x3e	; 62
     2a2:	6b 01       	movw	r12, r22
     2a4:	9c 83       	std	Y+4, r25	; 0x04
     2a6:	8b 83       	std	Y+3, r24	; 0x03
     2a8:	8a 96       	adiw	r24, 0x2a	; 42
     2aa:	9a 83       	std	Y+2, r25	; 0x02
     2ac:	89 83       	std	Y+1, r24	; 0x01
	}
	return temp;
}

void rise(uint16_t* last,int16_t rise){
	if(Time()%500 <= 20){
     2ae:	44 ef       	ldi	r20, 0xF4	; 244
     2b0:	44 2e       	mov	r4, r20
     2b2:	55 24       	eor	r5, r5
     2b4:	53 94       	inc	r5
     2b6:	61 2c       	mov	r6, r1
     2b8:	71 2c       	mov	r7, r1
		if(get_temp() < (*last)+(rise/50)){ // 100/4=25  100 is one deg on data.temp and 4 is one deg on the  sensor every haf a second we check so we mult by 2
     2ba:	52 e3       	ldi	r21, 0x32	; 50
     2bc:	25 2e       	mov	r2, r21
     2be:	31 2c       	mov	r3, r1
}

void update(struct tempC * data, void (*screen)(struct tempC)){ //rising or stable temp and time
	for(uint8_t i = 0; i < 6;i++){
		//if(data[i].temp == 0&& data[i].times == 0 && data[i].rise == 0)break;
		if(data[i].stableTemp){
     2c0:	eb 81       	ldd	r30, Y+3	; 0x03
     2c2:	fc 81       	ldd	r31, Y+4	; 0x04
     2c4:	80 81       	ld	r24, Z
     2c6:	88 23       	and	r24, r24
     2c8:	09 f4       	brne	.+2      	; 0x2cc <update+0x56>
     2ca:	64 c0       	rjmp	.+200    	; 0x394 <update+0x11e>
			timerReset();
     2cc:	0e 94 44 08 	call	0x1088	; 0x1088 <timerReset>
			uint32_t T = ((uint32_t) data[i].times) * 1000;
     2d0:	eb 81       	ldd	r30, Y+3	; 0x03
     2d2:	fc 81       	ldd	r31, Y+4	; 0x04
     2d4:	23 81       	ldd	r18, Z+3	; 0x03
     2d6:	34 81       	ldd	r19, Z+4	; 0x04
     2d8:	a8 ee       	ldi	r26, 0xE8	; 232
     2da:	b3 e0       	ldi	r27, 0x03	; 3
     2dc:	0e 94 db 08 	call	0x11b6	; 0x11b6 <__umulhisi3>
     2e0:	4b 01       	movw	r8, r22
     2e2:	5c 01       	movw	r10, r24
			while(Time()<T){
     2e4:	10 c0       	rjmp	.+32     	; 0x306 <update+0x90>
	//if (sence_temp_internal > 80) exit(0); //bruh its hot in here
	return sence_temp;
}
static uint16_t set_temp(uint16_t C){ // set temp has 2 fixed point paces of persision 
	uint16_t temp = get_temp(); // need to add get temp function
	if(((temp>C)?temp-C:C-temp) > ERROR_MARGIN){ // need to add error statement 
     2e6:	80 1b       	sub	r24, r16
     2e8:	91 0b       	sbc	r25, r17
     2ea:	06 97       	sbiw	r24, 0x06	; 6
     2ec:	08 f0       	brcs	.+2      	; 0x2f0 <update+0x7a>
		if(temp>C){
			PORTC &= ~(4);
     2ee:	42 98       	cbi	0x08, 2	; 8
		if(data[i].stableTemp){
			timerReset();
			uint32_t T = ((uint32_t) data[i].times) * 1000;
			while(Time()<T){
					set_temp(data[i].temp<<2);
					screen(data[i]);
     2f0:	eb 81       	ldd	r30, Y+3	; 0x03
     2f2:	fc 81       	ldd	r31, Y+4	; 0x04
     2f4:	20 81       	ld	r18, Z
     2f6:	31 81       	ldd	r19, Z+1	; 0x01
     2f8:	42 81       	ldd	r20, Z+2	; 0x02
     2fa:	53 81       	ldd	r21, Z+3	; 0x03
     2fc:	64 81       	ldd	r22, Z+4	; 0x04
     2fe:	75 81       	ldd	r23, Z+5	; 0x05
     300:	86 81       	ldd	r24, Z+6	; 0x06
     302:	f6 01       	movw	r30, r12
     304:	09 95       	icall
	for(uint8_t i = 0; i < 6;i++){
		//if(data[i].temp == 0&& data[i].times == 0 && data[i].rise == 0)break;
		if(data[i].stableTemp){
			timerReset();
			uint32_t T = ((uint32_t) data[i].times) * 1000;
			while(Time()<T){
     306:	0e 94 3b 08 	call	0x1076	; 0x1076 <Time>
     30a:	68 15       	cp	r22, r8
     30c:	79 05       	cpc	r23, r9
     30e:	8a 05       	cpc	r24, r10
     310:	9b 05       	cpc	r25, r11
     312:	c0 f4       	brcc	.+48     	; 0x344 <update+0xce>
					set_temp(data[i].temp<<2);
     314:	eb 81       	ldd	r30, Y+3	; 0x03
     316:	fc 81       	ldd	r31, Y+4	; 0x04
     318:	01 81       	ldd	r16, Z+1	; 0x01
     31a:	12 81       	ldd	r17, Z+2	; 0x02
     31c:	00 0f       	add	r16, r16
     31e:	11 1f       	adc	r17, r17
     320:	00 0f       	add	r16, r16
     322:	11 1f       	adc	r17, r17


#define ERROR_MARGIN 5

extern uint16_t get_temp(){ //get temp has 2 fixed point paces of persision 
	if(update_temp());// exit(0); // bruh u ducked up
     324:	0e 94 e7 00 	call	0x1ce	; 0x1ce <update_temp>
	//if (sence_temp_internal > 80) exit(0); //bruh its hot in here
	return sence_temp;
     328:	80 91 fc 01 	lds	r24, 0x01FC	; 0x8001fc <sence_temp>
     32c:	90 91 fd 01 	lds	r25, 0x01FD	; 0x8001fd <sence_temp+0x1>
}
static uint16_t set_temp(uint16_t C){ // set temp has 2 fixed point paces of persision 
	uint16_t temp = get_temp(); // need to add get temp function
	if(((temp>C)?temp-C:C-temp) > ERROR_MARGIN){ // need to add error statement 
     330:	08 17       	cp	r16, r24
     332:	19 07       	cpc	r17, r25
     334:	c0 f2       	brcs	.-80     	; 0x2e6 <update+0x70>
     336:	08 1b       	sub	r16, r24
     338:	19 0b       	sbc	r17, r25
     33a:	06 30       	cpi	r16, 0x06	; 6
     33c:	11 05       	cpc	r17, r1
     33e:	c0 f2       	brcs	.-80     	; 0x2f0 <update+0x7a>
		if(temp>C){
			PORTC &= ~(4);
		} else {
			PORTC |= 4;
     340:	42 9a       	sbi	0x08, 2	; 8
     342:	d6 cf       	rjmp	.-84     	; 0x2f0 <update+0x7a>
     344:	2b 81       	ldd	r18, Y+3	; 0x03
     346:	3c 81       	ldd	r19, Y+4	; 0x04
     348:	29 5f       	subi	r18, 0xF9	; 249
     34a:	3f 4f       	sbci	r19, 0xFF	; 255
     34c:	3c 83       	std	Y+4, r19	; 0x04
     34e:	2b 83       	std	Y+3, r18	; 0x03
		_delay_loop_2(20000);
	}
}

void update(struct tempC * data, void (*screen)(struct tempC)){ //rising or stable temp and time
	for(uint8_t i = 0; i < 6;i++){
     350:	89 81       	ldd	r24, Y+1	; 0x01
     352:	9a 81       	ldd	r25, Y+2	; 0x02
     354:	82 17       	cp	r24, r18
     356:	93 07       	cpc	r25, r19
     358:	09 f0       	breq	.+2      	; 0x35c <update+0xe6>
     35a:	b2 cf       	rjmp	.-156    	; 0x2c0 <update+0x4a>
					screen(data[i]);
				}
			}
		}
	}
	PORTC &= ~(4);
     35c:	42 98       	cbi	0x08, 2	; 8
    milliseconds can be achieved.
 */
void
_delay_loop_2(uint16_t __count)
{
	__asm__ volatile (
     35e:	80 e0       	ldi	r24, 0x00	; 0
     360:	90 e0       	ldi	r25, 0x00	; 0
     362:	01 97       	sbiw	r24, 0x01	; 1
     364:	f1 f7       	brne	.-4      	; 0x362 <update+0xec>
	_delay_loop_2(0);
     366:	0f 90       	pop	r0
     368:	0f 90       	pop	r0
     36a:	0f 90       	pop	r0
     36c:	0f 90       	pop	r0
     36e:	df 91       	pop	r29
     370:	cf 91       	pop	r28
     372:	1f 91       	pop	r17
     374:	0f 91       	pop	r16
     376:	ff 90       	pop	r15
     378:	ef 90       	pop	r14
     37a:	df 90       	pop	r13
     37c:	cf 90       	pop	r12
     37e:	bf 90       	pop	r11
     380:	af 90       	pop	r10
     382:	9f 90       	pop	r9
     384:	8f 90       	pop	r8
     386:	7f 90       	pop	r7
     388:	6f 90       	pop	r6
     38a:	5f 90       	pop	r5
     38c:	4f 90       	pop	r4
     38e:	3f 90       	pop	r3
     390:	2f 90       	pop	r2
     392:	08 95       	ret


#define ERROR_MARGIN 5

extern uint16_t get_temp(){ //get temp has 2 fixed point paces of persision 
	if(update_temp());// exit(0); // bruh u ducked up
     394:	0e 94 e7 00 	call	0x1ce	; 0x1ce <update_temp>
	//if (sence_temp_internal > 80) exit(0); //bruh its hot in here
	return sence_temp;
     398:	00 91 fc 01 	lds	r16, 0x01FC	; 0x8001fc <sence_temp>
     39c:	10 91 fd 01 	lds	r17, 0x01FD	; 0x8001fd <sence_temp+0x1>
					set_temp(data[i].temp<<2);
					screen(data[i]);
			}
		} else { // value is 500 to -500 and is realy 5 to -5 deg c /s		
			uint16_t last = get_temp();
			timerReset();
     3a0:	0e 94 44 08 	call	0x1088	; 0x1088 <timerReset>
			if(data[i].temp){
     3a4:	eb 81       	ldd	r30, Y+3	; 0x03
     3a6:	fc 81       	ldd	r31, Y+4	; 0x04
     3a8:	81 81       	ldd	r24, Z+1	; 0x01
     3aa:	92 81       	ldd	r25, Z+2	; 0x02
     3ac:	89 2b       	or	r24, r25
     3ae:	09 f0       	breq	.+2      	; 0x3b2 <update+0x13c>
     3b0:	60 c0       	rjmp	.+192    	; 0x472 <__LOCK_REGION_LENGTH__+0x72>
				while((get_temp() >>2) < data[i].temp ){
					rise(&last,data[i].rise);
					screen(data[i]);
				}
			} else {
				uint32_t T = ((uint32_t) data[i].times) * 1000;
     3b2:	23 81       	ldd	r18, Z+3	; 0x03
     3b4:	34 81       	ldd	r19, Z+4	; 0x04
     3b6:	a8 ee       	ldi	r26, 0xE8	; 232
     3b8:	b3 e0       	ldi	r27, 0x03	; 3
     3ba:	0e 94 db 08 	call	0x11b6	; 0x11b6 <__umulhisi3>
     3be:	4b 01       	movw	r8, r22
     3c0:	5c 01       	movw	r10, r24
				while(Time() < T){
     3c2:	0b c0       	rjmp	.+22     	; 0x3da <update+0x164>
					rise(&last,data[i].rise);
					screen(data[i]);
     3c4:	eb 81       	ldd	r30, Y+3	; 0x03
     3c6:	fc 81       	ldd	r31, Y+4	; 0x04
     3c8:	20 81       	ld	r18, Z
     3ca:	31 81       	ldd	r19, Z+1	; 0x01
     3cc:	42 81       	ldd	r20, Z+2	; 0x02
     3ce:	53 81       	ldd	r21, Z+3	; 0x03
     3d0:	64 81       	ldd	r22, Z+4	; 0x04
     3d2:	75 81       	ldd	r23, Z+5	; 0x05
     3d4:	86 81       	ldd	r24, Z+6	; 0x06
     3d6:	f6 01       	movw	r30, r12
     3d8:	09 95       	icall
					rise(&last,data[i].rise);
					screen(data[i]);
				}
			} else {
				uint32_t T = ((uint32_t) data[i].times) * 1000;
				while(Time() < T){
     3da:	0e 94 3b 08 	call	0x1076	; 0x1076 <Time>
     3de:	68 15       	cp	r22, r8
     3e0:	79 05       	cpc	r23, r9
     3e2:	8a 05       	cpc	r24, r10
     3e4:	9b 05       	cpc	r25, r11
     3e6:	08 f0       	brcs	.+2      	; 0x3ea <update+0x174>
     3e8:	ad cf       	rjmp	.-166    	; 0x344 <update+0xce>
					rise(&last,data[i].rise);
     3ea:	eb 81       	ldd	r30, Y+3	; 0x03
     3ec:	fc 81       	ldd	r31, Y+4	; 0x04
     3ee:	e5 80       	ldd	r14, Z+5	; 0x05
     3f0:	f6 80       	ldd	r15, Z+6	; 0x06
	}
	return temp;
}

void rise(uint16_t* last,int16_t rise){
	if(Time()%500 <= 20){
     3f2:	0e 94 3b 08 	call	0x1076	; 0x1076 <Time>
     3f6:	a3 01       	movw	r20, r6
     3f8:	92 01       	movw	r18, r4
     3fa:	0e 94 9a 08 	call	0x1134	; 0x1134 <__udivmodsi4>
     3fe:	65 31       	cpi	r22, 0x15	; 21
     400:	71 05       	cpc	r23, r1
     402:	81 05       	cpc	r24, r1
     404:	91 05       	cpc	r25, r1
     406:	f0 f6       	brcc	.-68     	; 0x3c4 <update+0x14e>


#define ERROR_MARGIN 5

extern uint16_t get_temp(){ //get temp has 2 fixed point paces of persision 
	if(update_temp());// exit(0); // bruh u ducked up
     408:	0e 94 e7 00 	call	0x1ce	; 0x1ce <update_temp>
	return temp;
}

void rise(uint16_t* last,int16_t rise){
	if(Time()%500 <= 20){
		if(get_temp() < (*last)+(rise/50)){ // 100/4=25  100 is one deg on data.temp and 4 is one deg on the  sensor every haf a second we check so we mult by 2
     40c:	c7 01       	movw	r24, r14
     40e:	b1 01       	movw	r22, r2
     410:	0e 94 86 08 	call	0x110c	; 0x110c <__divmodhi4>
     414:	06 0f       	add	r16, r22
     416:	17 1f       	adc	r17, r23
     418:	80 91 fc 01 	lds	r24, 0x01FC	; 0x8001fc <sence_temp>
     41c:	90 91 fd 01 	lds	r25, 0x01FD	; 0x8001fd <sence_temp+0x1>
     420:	80 17       	cp	r24, r16
     422:	91 07       	cpc	r25, r17
     424:	08 f0       	brcs	.+2      	; 0x428 <__LOCK_REGION_LENGTH__+0x28>
     426:	47 c0       	rjmp	.+142    	; 0x4b6 <__LOCK_REGION_LENGTH__+0xb6>
			PORTC |= 4;
     428:	42 9a       	sbi	0x08, 2	; 8
     42a:	80 e2       	ldi	r24, 0x20	; 32
     42c:	9e e4       	ldi	r25, 0x4E	; 78
     42e:	01 97       	sbiw	r24, 0x01	; 1
     430:	f1 f7       	brne	.-4      	; 0x42e <__LOCK_REGION_LENGTH__+0x2e>
     432:	c8 cf       	rjmp	.-112    	; 0x3c4 <update+0x14e>


#define ERROR_MARGIN 5

extern uint16_t get_temp(){ //get temp has 2 fixed point paces of persision 
	if(update_temp());// exit(0); // bruh u ducked up
     434:	0e 94 e7 00 	call	0x1ce	; 0x1ce <update_temp>
	return temp;
}

void rise(uint16_t* last,int16_t rise){
	if(Time()%500 <= 20){
		if(get_temp() < (*last)+(rise/50)){ // 100/4=25  100 is one deg on data.temp and 4 is one deg on the  sensor every haf a second we check so we mult by 2
     438:	c7 01       	movw	r24, r14
     43a:	b1 01       	movw	r22, r2
     43c:	0e 94 86 08 	call	0x110c	; 0x110c <__divmodhi4>
     440:	06 0f       	add	r16, r22
     442:	17 1f       	adc	r17, r23
     444:	80 91 fc 01 	lds	r24, 0x01FC	; 0x8001fc <sence_temp>
     448:	90 91 fd 01 	lds	r25, 0x01FD	; 0x8001fd <sence_temp+0x1>
     44c:	80 17       	cp	r24, r16
     44e:	91 07       	cpc	r25, r17
     450:	80 f5       	brcc	.+96     	; 0x4b2 <__LOCK_REGION_LENGTH__+0xb2>
			PORTC |= 4;
     452:	42 9a       	sbi	0x08, 2	; 8
     454:	80 e2       	ldi	r24, 0x20	; 32
     456:	9e e4       	ldi	r25, 0x4E	; 78
     458:	01 97       	sbiw	r24, 0x01	; 1
     45a:	f1 f7       	brne	.-4      	; 0x458 <__LOCK_REGION_LENGTH__+0x58>
			uint16_t last = get_temp();
			timerReset();
			if(data[i].temp){
				while((get_temp() >>2) < data[i].temp ){
					rise(&last,data[i].rise);
					screen(data[i]);
     45c:	eb 81       	ldd	r30, Y+3	; 0x03
     45e:	fc 81       	ldd	r31, Y+4	; 0x04
     460:	20 81       	ld	r18, Z
     462:	31 81       	ldd	r19, Z+1	; 0x01
     464:	42 81       	ldd	r20, Z+2	; 0x02
     466:	53 81       	ldd	r21, Z+3	; 0x03
     468:	64 81       	ldd	r22, Z+4	; 0x04
     46a:	75 81       	ldd	r23, Z+5	; 0x05
     46c:	86 81       	ldd	r24, Z+6	; 0x06
     46e:	f6 01       	movw	r30, r12
     470:	09 95       	icall


#define ERROR_MARGIN 5

extern uint16_t get_temp(){ //get temp has 2 fixed point paces of persision 
	if(update_temp());// exit(0); // bruh u ducked up
     472:	0e 94 e7 00 	call	0x1ce	; 0x1ce <update_temp>
			}
		} else { // value is 500 to -500 and is realy 5 to -5 deg c /s		
			uint16_t last = get_temp();
			timerReset();
			if(data[i].temp){
				while((get_temp() >>2) < data[i].temp ){
     476:	80 91 fc 01 	lds	r24, 0x01FC	; 0x8001fc <sence_temp>
     47a:	90 91 fd 01 	lds	r25, 0x01FD	; 0x8001fd <sence_temp+0x1>
     47e:	96 95       	lsr	r25
     480:	87 95       	ror	r24
     482:	96 95       	lsr	r25
     484:	87 95       	ror	r24
     486:	eb 81       	ldd	r30, Y+3	; 0x03
     488:	fc 81       	ldd	r31, Y+4	; 0x04
     48a:	21 81       	ldd	r18, Z+1	; 0x01
     48c:	32 81       	ldd	r19, Z+2	; 0x02
     48e:	82 17       	cp	r24, r18
     490:	93 07       	cpc	r25, r19
     492:	08 f0       	brcs	.+2      	; 0x496 <__LOCK_REGION_LENGTH__+0x96>
     494:	57 cf       	rjmp	.-338    	; 0x344 <update+0xce>
					rise(&last,data[i].rise);
     496:	e5 80       	ldd	r14, Z+5	; 0x05
     498:	f6 80       	ldd	r15, Z+6	; 0x06
	}
	return temp;
}

void rise(uint16_t* last,int16_t rise){
	if(Time()%500 <= 20){
     49a:	0e 94 3b 08 	call	0x1076	; 0x1076 <Time>
     49e:	a3 01       	movw	r20, r6
     4a0:	92 01       	movw	r18, r4
     4a2:	0e 94 9a 08 	call	0x1134	; 0x1134 <__udivmodsi4>
     4a6:	65 31       	cpi	r22, 0x15	; 21
     4a8:	71 05       	cpc	r23, r1
     4aa:	81 05       	cpc	r24, r1
     4ac:	91 05       	cpc	r25, r1
     4ae:	b0 f6       	brcc	.-84     	; 0x45c <__LOCK_REGION_LENGTH__+0x5c>
     4b0:	c1 cf       	rjmp	.-126    	; 0x434 <__LOCK_REGION_LENGTH__+0x34>
		if(get_temp() < (*last)+(rise/50)){ // 100/4=25  100 is one deg on data.temp and 4 is one deg on the  sensor every haf a second we check so we mult by 2
			PORTC |= 4;
			}else {
			PORTC &= ~(4);
     4b2:	42 98       	cbi	0x08, 2	; 8
     4b4:	cf cf       	rjmp	.-98     	; 0x454 <__LOCK_REGION_LENGTH__+0x54>
     4b6:	42 98       	cbi	0x08, 2	; 8
     4b8:	b8 cf       	rjmp	.-144    	; 0x42a <__LOCK_REGION_LENGTH__+0x2a>

000004ba <Options>:
}

static uint16_t getTime(){
			return menu2("Enter Time S:",240,10);
}
void Options(struct tempC * data){
     4ba:	cf 92       	push	r12
     4bc:	df 92       	push	r13
     4be:	ff 92       	push	r15
     4c0:	0f 93       	push	r16
     4c2:	1f 93       	push	r17
     4c4:	cf 93       	push	r28
     4c6:	df 93       	push	r29
     4c8:	ec 01       	movw	r28, r24
     4ca:	8c 01       	movw	r16, r24
     4cc:	06 5d       	subi	r16, 0xD6	; 214
     4ce:	1f 4f       	sbci	r17, 0xFF	; 255

static int16_t getTempRise(){
		if(C)
		return menu3("Enter *C/S:",500,-500,2);
		else
		return ((menu3("Enter *F/S:",900,-900,2))*5)/9;
     4d0:	f9 e0       	ldi	r31, 0x09	; 9
     4d2:	cf 2e       	mov	r12, r31
     4d4:	d1 2c       	mov	r13, r1
				data[i].times = getTime();
				data[i].rise = getTempRise();
				continue;
			}
			case 2:{
				data[i].stableTemp = true;
     4d6:	ff 24       	eor	r15, r15
     4d8:	f3 94       	inc	r15
static uint16_t getTime(){
			return menu2("Enter Time S:",240,10);
}
void Options(struct tempC * data){
	for(uint8_t i = 0; i < 6;i++){
		uint8_t option = menu1("Select an option:\n>Set target temp...\n Set rise time...\n Set temp...\n C or F...\n Start...",5);
     4da:	65 e0       	ldi	r22, 0x05	; 5
     4dc:	81 e0       	ldi	r24, 0x01	; 1
     4de:	91 e0       	ldi	r25, 0x01	; 1
     4e0:	0e 94 23 03 	call	0x646	; 0x646 <menu1>
		switch (option){
     4e4:	81 30       	cpi	r24, 0x01	; 1
     4e6:	09 f4       	brne	.+2      	; 0x4ea <Options+0x30>
     4e8:	77 c0       	rjmp	.+238    	; 0x5d8 <Options+0x11e>
     4ea:	08 f4       	brcc	.+2      	; 0x4ee <Options+0x34>
     4ec:	43 c0       	rjmp	.+134    	; 0x574 <Options+0xba>
     4ee:	82 30       	cpi	r24, 0x02	; 2
     4f0:	99 f0       	breq	.+38     	; 0x518 <Options+0x5e>
     4f2:	83 30       	cpi	r24, 0x03	; 3
     4f4:	49 f4       	brne	.+18     	; 0x508 <Options+0x4e>
				data[i].times = getTime();
				data[i].temp = getTemp();
				continue;
			}
			case 3:{
				C ^= true;
     4f6:	80 91 00 01 	lds	r24, 0x0100	; 0x800100 <__data_start>
     4fa:	8f 25       	eor	r24, r15
     4fc:	80 93 00 01 	sts	0x0100, r24	; 0x800100 <__data_start>
     500:	27 96       	adiw	r28, 0x07	; 7

static uint16_t getTime(){
			return menu2("Enter Time S:",240,10);
}
void Options(struct tempC * data){
	for(uint8_t i = 0; i < 6;i++){
     502:	c0 17       	cp	r28, r16
     504:	d1 07       	cpc	r29, r17
     506:	49 f7       	brne	.-46     	; 0x4da <Options+0x20>
				break;
			}
		}
		break;
	}
     508:	df 91       	pop	r29
     50a:	cf 91       	pop	r28
     50c:	1f 91       	pop	r17
     50e:	0f 91       	pop	r16
     510:	ff 90       	pop	r15
     512:	df 90       	pop	r13
     514:	cf 90       	pop	r12
     516:	08 95       	ret
				data[i].times = getTime();
				data[i].rise = getTempRise();
				continue;
			}
			case 2:{
				data[i].stableTemp = true;
     518:	f8 82       	st	Y, r15
		else
		return ((menu3("Enter *F/S:",900,-900,2))*5)/9;
}

static uint16_t getTime(){
			return menu2("Enter Time S:",240,10);
     51a:	4a e0       	ldi	r20, 0x0A	; 10
     51c:	50 e0       	ldi	r21, 0x00	; 0
     51e:	60 ef       	ldi	r22, 0xF0	; 240
     520:	70 e0       	ldi	r23, 0x00	; 0
     522:	81 e9       	ldi	r24, 0x91	; 145
     524:	91 e0       	ldi	r25, 0x01	; 1
     526:	0e 94 ac 03 	call	0x758	; 0x758 <menu2>
				data[i].rise = getTempRise();
				continue;
			}
			case 2:{
				data[i].stableTemp = true;
				data[i].times = getTime();
     52a:	9c 83       	std	Y+4, r25	; 0x04
     52c:	8b 83       	std	Y+3, r24	; 0x03
#include "temp_control.h"

static bool C = true;

static uint16_t getTemp(){
	if(C)
     52e:	80 91 00 01 	lds	r24, 0x0100	; 0x800100 <__data_start>
     532:	81 11       	cpse	r24, r1
     534:	76 c0       	rjmp	.+236    	; 0x622 <Options+0x168>
		return menu2("Enter Temp *C:",475,100);
	else 
		return ((menu2("Enter Temp *F:",885,215)-32)*5)/9;
     536:	47 ed       	ldi	r20, 0xD7	; 215
     538:	50 e0       	ldi	r21, 0x00	; 0
     53a:	65 e7       	ldi	r22, 0x75	; 117
     53c:	73 e0       	ldi	r23, 0x03	; 3
     53e:	8a e6       	ldi	r24, 0x6A	; 106
     540:	91 e0       	ldi	r25, 0x01	; 1
     542:	0e 94 ac 03 	call	0x758	; 0x758 <menu2>
     546:	9c 01       	movw	r18, r24
     548:	22 0f       	add	r18, r18
     54a:	33 1f       	adc	r19, r19
     54c:	22 0f       	add	r18, r18
     54e:	33 1f       	adc	r19, r19
     550:	82 0f       	add	r24, r18
     552:	93 1f       	adc	r25, r19
     554:	9c 01       	movw	r18, r24
     556:	20 5a       	subi	r18, 0xA0	; 160
     558:	31 09       	sbc	r19, r1
     55a:	af e8       	ldi	r26, 0x8F	; 143
     55c:	b3 ee       	ldi	r27, 0xE3	; 227
     55e:	0e 94 db 08 	call	0x11b6	; 0x11b6 <__umulhisi3>
     562:	96 95       	lsr	r25
     564:	87 95       	ror	r24
     566:	96 95       	lsr	r25
     568:	87 95       	ror	r24
     56a:	96 95       	lsr	r25
     56c:	87 95       	ror	r24
				continue;
			}
			case 2:{
				data[i].stableTemp = true;
				data[i].times = getTime();
				data[i].temp = getTemp();
     56e:	9a 83       	std	Y+2, r25	; 0x02
     570:	89 83       	std	Y+1, r24	; 0x01
				continue;
     572:	c6 cf       	rjmp	.-116    	; 0x500 <Options+0x46>
void Options(struct tempC * data){
	for(uint8_t i = 0; i < 6;i++){
		uint8_t option = menu1("Select an option:\n>Set target temp...\n Set rise time...\n Set temp...\n C or F...\n Start...",5);
		switch (option){
			case 0:{
				data[i].stableTemp = false;
     574:	18 82       	st	Y, r1
#include "temp_control.h"

static bool C = true;

static uint16_t getTemp(){
	if(C)
     576:	80 91 00 01 	lds	r24, 0x0100	; 0x800100 <__data_start>
     57a:	81 11       	cpse	r24, r1
     57c:	5b c0       	rjmp	.+182    	; 0x634 <Options+0x17a>
		return menu2("Enter Temp *C:",475,100);
	else 
		return ((menu2("Enter Temp *F:",885,215)-32)*5)/9;
     57e:	47 ed       	ldi	r20, 0xD7	; 215
     580:	50 e0       	ldi	r21, 0x00	; 0
     582:	65 e7       	ldi	r22, 0x75	; 117
     584:	73 e0       	ldi	r23, 0x03	; 3
     586:	8a e6       	ldi	r24, 0x6A	; 106
     588:	91 e0       	ldi	r25, 0x01	; 1
     58a:	0e 94 ac 03 	call	0x758	; 0x758 <menu2>
     58e:	9c 01       	movw	r18, r24
     590:	22 0f       	add	r18, r18
     592:	33 1f       	adc	r19, r19
     594:	22 0f       	add	r18, r18
     596:	33 1f       	adc	r19, r19
     598:	82 0f       	add	r24, r18
     59a:	93 1f       	adc	r25, r19
     59c:	9c 01       	movw	r18, r24
     59e:	20 5a       	subi	r18, 0xA0	; 160
     5a0:	31 09       	sbc	r19, r1
     5a2:	af e8       	ldi	r26, 0x8F	; 143
     5a4:	b3 ee       	ldi	r27, 0xE3	; 227
     5a6:	0e 94 db 08 	call	0x11b6	; 0x11b6 <__umulhisi3>
     5aa:	96 95       	lsr	r25
     5ac:	87 95       	ror	r24
     5ae:	96 95       	lsr	r25
     5b0:	87 95       	ror	r24
     5b2:	96 95       	lsr	r25
     5b4:	87 95       	ror	r24
	for(uint8_t i = 0; i < 6;i++){
		uint8_t option = menu1("Select an option:\n>Set target temp...\n Set rise time...\n Set temp...\n C or F...\n Start...",5);
		switch (option){
			case 0:{
				data[i].stableTemp = false;
				data[i].temp = getTemp();
     5b6:	9a 83       	std	Y+2, r25	; 0x02
     5b8:	89 83       	std	Y+1, r24	; 0x01
	else 
		return ((menu2("Enter Temp *F:",885,215)-32)*5)/9;
}

static int16_t getTempRise(){
		if(C)
     5ba:	80 91 00 01 	lds	r24, 0x0100	; 0x800100 <__data_start>
		return menu3("Enter *C/S:",500,-500,2);
     5be:	22 e0       	ldi	r18, 0x02	; 2
	else 
		return ((menu2("Enter Temp *F:",885,215)-32)*5)/9;
}

static int16_t getTempRise(){
		if(C)
     5c0:	88 23       	and	r24, r24
     5c2:	d1 f0       	breq	.+52     	; 0x5f8 <Options+0x13e>
		return menu3("Enter *C/S:",500,-500,2);
     5c4:	4c e0       	ldi	r20, 0x0C	; 12
     5c6:	5e ef       	ldi	r21, 0xFE	; 254
     5c8:	64 ef       	ldi	r22, 0xF4	; 244
     5ca:	71 e0       	ldi	r23, 0x01	; 1
     5cc:	89 e7       	ldi	r24, 0x79	; 121
     5ce:	91 e0       	ldi	r25, 0x01	; 1
     5d0:	0e 94 57 04 	call	0x8ae	; 0x8ae <menu3>
     5d4:	bc 01       	movw	r22, r24
     5d6:	22 c0       	rjmp	.+68     	; 0x61c <Options+0x162>
				data[i].temp = getTemp();
				data[i].rise = getTempRise();
				continue;
			}
			case 1:{
				data[i].stableTemp = false;
     5d8:	18 82       	st	Y, r1
		else
		return ((menu3("Enter *F/S:",900,-900,2))*5)/9;
}

static uint16_t getTime(){
			return menu2("Enter Time S:",240,10);
     5da:	4a e0       	ldi	r20, 0x0A	; 10
     5dc:	50 e0       	ldi	r21, 0x00	; 0
     5de:	60 ef       	ldi	r22, 0xF0	; 240
     5e0:	70 e0       	ldi	r23, 0x00	; 0
     5e2:	81 e9       	ldi	r24, 0x91	; 145
     5e4:	91 e0       	ldi	r25, 0x01	; 1
     5e6:	0e 94 ac 03 	call	0x758	; 0x758 <menu2>
				data[i].rise = getTempRise();
				continue;
			}
			case 1:{
				data[i].stableTemp = false;
				data[i].times = getTime();
     5ea:	9c 83       	std	Y+4, r25	; 0x04
     5ec:	8b 83       	std	Y+3, r24	; 0x03
	else 
		return ((menu2("Enter Temp *F:",885,215)-32)*5)/9;
}

static int16_t getTempRise(){
		if(C)
     5ee:	80 91 00 01 	lds	r24, 0x0100	; 0x800100 <__data_start>
		return menu3("Enter *C/S:",500,-500,2);
     5f2:	22 e0       	ldi	r18, 0x02	; 2
	else 
		return ((menu2("Enter Temp *F:",885,215)-32)*5)/9;
}

static int16_t getTempRise(){
		if(C)
     5f4:	81 11       	cpse	r24, r1
     5f6:	e6 cf       	rjmp	.-52     	; 0x5c4 <Options+0x10a>
		return menu3("Enter *C/S:",500,-500,2);
		else
		return ((menu3("Enter *F/S:",900,-900,2))*5)/9;
     5f8:	4c e7       	ldi	r20, 0x7C	; 124
     5fa:	5c ef       	ldi	r21, 0xFC	; 252
     5fc:	64 e8       	ldi	r22, 0x84	; 132
     5fe:	73 e0       	ldi	r23, 0x03	; 3
     600:	85 e8       	ldi	r24, 0x85	; 133
     602:	91 e0       	ldi	r25, 0x01	; 1
     604:	0e 94 57 04 	call	0x8ae	; 0x8ae <menu3>
     608:	9c 01       	movw	r18, r24
     60a:	22 0f       	add	r18, r18
     60c:	33 1f       	adc	r19, r19
     60e:	22 0f       	add	r18, r18
     610:	33 1f       	adc	r19, r19
     612:	82 0f       	add	r24, r18
     614:	93 1f       	adc	r25, r19
     616:	b6 01       	movw	r22, r12
     618:	0e 94 86 08 	call	0x110c	; 0x110c <__divmodhi4>
				continue;
			}
			case 1:{
				data[i].stableTemp = false;
				data[i].times = getTime();
				data[i].rise = getTempRise();
     61c:	7e 83       	std	Y+6, r23	; 0x06
     61e:	6d 83       	std	Y+5, r22	; 0x05
				continue;
     620:	6f cf       	rjmp	.-290    	; 0x500 <Options+0x46>

static bool C = true;

static uint16_t getTemp(){
	if(C)
		return menu2("Enter Temp *C:",475,100);
     622:	44 e6       	ldi	r20, 0x64	; 100
     624:	50 e0       	ldi	r21, 0x00	; 0
     626:	6b ed       	ldi	r22, 0xDB	; 219
     628:	71 e0       	ldi	r23, 0x01	; 1
     62a:	8b e5       	ldi	r24, 0x5B	; 91
     62c:	91 e0       	ldi	r25, 0x01	; 1
     62e:	0e 94 ac 03 	call	0x758	; 0x758 <menu2>
     632:	9d cf       	rjmp	.-198    	; 0x56e <Options+0xb4>
     634:	44 e6       	ldi	r20, 0x64	; 100
     636:	50 e0       	ldi	r21, 0x00	; 0
     638:	6b ed       	ldi	r22, 0xDB	; 219
     63a:	71 e0       	ldi	r23, 0x01	; 1
     63c:	8b e5       	ldi	r24, 0x5B	; 91
     63e:	91 e0       	ldi	r25, 0x01	; 1
     640:	0e 94 ac 03 	call	0x758	; 0x758 <menu2>
     644:	b8 cf       	rjmp	.-144    	; 0x5b6 <Options+0xfc>

00000646 <menu1>:

static int16_t map(int32_t x, int32_t in_min, int32_t in_max, int32_t out_min, int32_t out_max)
{
	return (x - in_min) * (out_max - out_min) / (in_max - in_min) + out_min;
}
uint8_t menu1(char str[],uint8_t options){
     646:	af 92       	push	r10
     648:	bf 92       	push	r11
     64a:	cf 92       	push	r12
     64c:	df 92       	push	r13
     64e:	ef 92       	push	r14
     650:	ff 92       	push	r15
     652:	0f 93       	push	r16
     654:	1f 93       	push	r17
     656:	cf 93       	push	r28
     658:	df 93       	push	r29
     65a:	8c 01       	movw	r16, r24
	int8_t pos = (options-1);
     65c:	dd 24       	eor	r13, r13
     65e:	da 94       	dec	r13
     660:	d6 0e       	add	r13, r22
    int8_t line = 0;
	while(PINB&(1<<2)){
     662:	93 b1       	in	r25, 0x03	; 3
     664:	d9 2f       	mov	r29, r25
     666:	d4 70       	andi	r29, 0x04	; 4
     668:	92 ff       	sbrs	r25, 2
     66a:	56 c0       	rjmp	.+172    	; 0x718 <menu1+0xd2>
     66c:	cd 2d       	mov	r28, r13
     66e:	d0 e0       	ldi	r29, 0x00	; 0
		int8_t tmp = going();
		if(tmp) {
				if(pos+line+tmp >= 0 && pos+line+tmp < options){
     670:	e6 2e       	mov	r14, r22
     672:	f1 2c       	mov	r15, r1
					console[pos+line][0] = ' ';
     674:	20 e2       	ldi	r18, 0x20	; 32
     676:	b2 2e       	mov	r11, r18
					if((line+tmp) < _numlines && (line+tmp)  >= 0) 
						line += tmp;
					else 
						pos += tmp;
					console[pos+line][0] = '>';
     678:	3e e3       	ldi	r19, 0x3E	; 62
     67a:	c3 2e       	mov	r12, r19
     67c:	2b c0       	rjmp	.+86     	; 0x6d4 <menu1+0x8e>
    int8_t line = 0;
	while(PINB&(1<<2)){
		int8_t tmp = going();
		if(tmp) {
				if(pos+line+tmp >= 0 && pos+line+tmp < options){
					console[pos+line][0] = ' ';
     67e:	44 0f       	add	r20, r20
     680:	55 1f       	adc	r21, r21
     682:	fa 01       	movw	r30, r20
     684:	e2 5e       	subi	r30, 0xE2	; 226
     686:	fd 4f       	sbci	r31, 0xFD	; 253
     688:	01 90       	ld	r0, Z+
     68a:	f0 81       	ld	r31, Z
     68c:	e0 2d       	mov	r30, r0
     68e:	b0 82       	st	Z, r11
					if((line+tmp) < _numlines && (line+tmp)  >= 0) 
     690:	62 0f       	add	r22, r18
     692:	73 1f       	adc	r23, r19
     694:	40 91 1d 02 	lds	r20, 0x021D	; 0x80021d <_numlines>
     698:	50 e0       	ldi	r21, 0x00	; 0
     69a:	64 17       	cp	r22, r20
     69c:	75 07       	cpc	r23, r21
     69e:	0c f0       	brlt	.+2      	; 0x6a2 <menu1+0x5c>
     6a0:	55 c0       	rjmp	.+170    	; 0x74c <menu1+0x106>
     6a2:	77 fd       	sbrc	r23, 7
     6a4:	53 c0       	rjmp	.+166    	; 0x74c <menu1+0x106>
						line += tmp;
     6a6:	d8 0f       	add	r29, r24
     6a8:	2d 2f       	mov	r18, r29
     6aa:	0d 2e       	mov	r0, r29
     6ac:	00 0c       	add	r0, r0
     6ae:	33 0b       	sbc	r19, r19
					else 
						pos += tmp;
					console[pos+line][0] = '>';
     6b0:	a2 0f       	add	r26, r18
     6b2:	b3 1f       	adc	r27, r19
     6b4:	aa 0f       	add	r26, r26
     6b6:	bb 1f       	adc	r27, r27
     6b8:	a2 5e       	subi	r26, 0xE2	; 226
     6ba:	bd 4f       	sbci	r27, 0xFD	; 253
     6bc:	ed 91       	ld	r30, X+
     6be:	fc 91       	ld	r31, X
     6c0:	c0 82       	st	Z, r12
				} else if (pos+line+tmp == options){
					pos = (options-1);
					line = 0;
				}
		}
		lcd_print(str);
     6c2:	c8 01       	movw	r24, r16
     6c4:	0e 94 e6 06 	call	0xdcc	; 0xdcc <lcd_print>
		lcd_updateScreen(pos);
     6c8:	ac 2e       	mov	r10, r28
     6ca:	8c 2f       	mov	r24, r28
     6cc:	0e 94 22 07 	call	0xe44	; 0xe44 <lcd_updateScreen>
	return (x - in_min) * (out_max - out_min) / (in_max - in_min) + out_min;
}
uint8_t menu1(char str[],uint8_t options){
	int8_t pos = (options-1);
    int8_t line = 0;
	while(PINB&(1<<2)){
     6d0:	1a 9b       	sbis	0x03, 2	; 3
     6d2:	23 c0       	rjmp	.+70     	; 0x71a <menu1+0xd4>
		int8_t tmp = going();
     6d4:	0e 94 a3 00 	call	0x146	; 0x146 <going>
		if(tmp) {
     6d8:	88 23       	and	r24, r24
     6da:	99 f3       	breq	.-26     	; 0x6c2 <menu1+0x7c>
				if(pos+line+tmp >= 0 && pos+line+tmp < options){
     6dc:	ac 2f       	mov	r26, r28
     6de:	0c 2e       	mov	r0, r28
     6e0:	00 0c       	add	r0, r0
     6e2:	bb 0b       	sbc	r27, r27
     6e4:	2d 2f       	mov	r18, r29
     6e6:	0d 2e       	mov	r0, r29
     6e8:	00 0c       	add	r0, r0
     6ea:	33 0b       	sbc	r19, r19
     6ec:	ad 01       	movw	r20, r26
     6ee:	42 0f       	add	r20, r18
     6f0:	53 1f       	adc	r21, r19
     6f2:	68 2f       	mov	r22, r24
     6f4:	08 2e       	mov	r0, r24
     6f6:	00 0c       	add	r0, r0
     6f8:	77 0b       	sbc	r23, r23
     6fa:	fa 01       	movw	r30, r20
     6fc:	e6 0f       	add	r30, r22
     6fe:	f7 1f       	adc	r31, r23
     700:	f7 fd       	sbrc	r31, 7
     702:	df cf       	rjmp	.-66     	; 0x6c2 <menu1+0x7c>
     704:	ee 15       	cp	r30, r14
     706:	ff 05       	cpc	r31, r15
     708:	0c f4       	brge	.+2      	; 0x70c <menu1+0xc6>
     70a:	b9 cf       	rjmp	.-142    	; 0x67e <menu1+0x38>
					if((line+tmp) < _numlines && (line+tmp)  >= 0) 
						line += tmp;
					else 
						pos += tmp;
					console[pos+line][0] = '>';
				} else if (pos+line+tmp == options){
     70c:	ee 15       	cp	r30, r14
     70e:	ff 05       	cpc	r31, r15
     710:	c1 f6       	brne	.-80     	; 0x6c2 <menu1+0x7c>
					pos = (options-1);
     712:	cd 2d       	mov	r28, r13
					line = 0;
     714:	d0 e0       	ldi	r29, 0x00	; 0
     716:	d5 cf       	rjmp	.-86     	; 0x6c2 <menu1+0x7c>
     718:	ad 2c       	mov	r10, r13
				}
		}
		lcd_print(str);
		lcd_updateScreen(pos);
	}
	while(!(PINB&(1<<2)));
     71a:	1a 9b       	sbis	0x03, 2	; 3
     71c:	fe cf       	rjmp	.-4      	; 0x71a <menu1+0xd4>
     71e:	2f ef       	ldi	r18, 0xFF	; 255
     720:	85 ea       	ldi	r24, 0xA5	; 165
     722:	9e e0       	ldi	r25, 0x0E	; 14
     724:	21 50       	subi	r18, 0x01	; 1
     726:	80 40       	sbci	r24, 0x00	; 0
     728:	90 40       	sbci	r25, 0x00	; 0
     72a:	e1 f7       	brne	.-8      	; 0x724 <menu1+0xde>
     72c:	00 c0       	rjmp	.+0      	; 0x72e <menu1+0xe8>
     72e:	00 00       	nop
	
	_delay_ms(300);
	return options-(line+pos+1);
     730:	8d 2d       	mov	r24, r13
     732:	8d 1b       	sub	r24, r29
}
     734:	8a 19       	sub	r24, r10
     736:	df 91       	pop	r29
     738:	cf 91       	pop	r28
     73a:	1f 91       	pop	r17
     73c:	0f 91       	pop	r16
     73e:	ff 90       	pop	r15
     740:	ef 90       	pop	r14
     742:	df 90       	pop	r13
     744:	cf 90       	pop	r12
     746:	bf 90       	pop	r11
     748:	af 90       	pop	r10
     74a:	08 95       	ret
				if(pos+line+tmp >= 0 && pos+line+tmp < options){
					console[pos+line][0] = ' ';
					if((line+tmp) < _numlines && (line+tmp)  >= 0) 
						line += tmp;
					else 
						pos += tmp;
     74c:	c8 0f       	add	r28, r24
     74e:	ac 2f       	mov	r26, r28
     750:	0c 2e       	mov	r0, r28
     752:	00 0c       	add	r0, r0
     754:	bb 0b       	sbc	r27, r27
     756:	ac cf       	rjmp	.-168    	; 0x6b0 <menu1+0x6a>

00000758 <menu2>:
	
	_delay_ms(300);
	return options-(line+pos+1);
}

uint16_t menu2(char str[],uint16_t high,uint16_t low){
     758:	2f 92       	push	r2
     75a:	3f 92       	push	r3
     75c:	4f 92       	push	r4
     75e:	5f 92       	push	r5
     760:	6f 92       	push	r6
     762:	7f 92       	push	r7
     764:	8f 92       	push	r8
     766:	9f 92       	push	r9
     768:	af 92       	push	r10
     76a:	bf 92       	push	r11
     76c:	cf 92       	push	r12
     76e:	df 92       	push	r13
     770:	ef 92       	push	r14
     772:	ff 92       	push	r15
     774:	0f 93       	push	r16
     776:	1f 93       	push	r17
     778:	cf 93       	push	r28
     77a:	df 93       	push	r29
     77c:	cd b7       	in	r28, 0x3d	; 61
     77e:	de b7       	in	r29, 0x3e	; 62
     780:	66 97       	sbiw	r28, 0x16	; 22
     782:	0f b6       	in	r0, 0x3f	; 63
     784:	f8 94       	cli
     786:	de bf       	out	0x3e, r29	; 62
     788:	0f be       	out	0x3f, r0	; 63
     78a:	cd bf       	out	0x3d, r28	; 61
	int16_t val = 0;
	int16_t cal = 0;

	char dis[20] = {0};
     78c:	9e 01       	movw	r18, r28
     78e:	2f 5f       	subi	r18, 0xFF	; 255
     790:	3f 4f       	sbci	r19, 0xFF	; 255
     792:	69 01       	movw	r12, r18
     794:	24 e1       	ldi	r18, 0x14	; 20
     796:	f6 01       	movw	r30, r12
     798:	11 92       	st	Z+, r1
     79a:	2a 95       	dec	r18
     79c:	e9 f7       	brne	.-6      	; 0x798 <menu2+0x40>
	while(PINB&(1<<2)){
     79e:	1a 9b       	sbis	0x03, 2	; 3
     7a0:	83 c0       	rjmp	.+262    	; 0x8a8 <menu2+0x150>
     7a2:	1a 01       	movw	r2, r20
     7a4:	4b 01       	movw	r8, r22
     7a6:	9e 8b       	std	Y+22, r25	; 0x16
     7a8:	8d 8b       	std	Y+21, r24	; 0x15
     7aa:	a1 2c       	mov	r10, r1
     7ac:	b1 2c       	mov	r11, r1
     7ae:	84 1a       	sub	r8, r20
     7b0:	95 0a       	sbc	r9, r21
     7b2:	a1 08       	sbc	r10, r1
     7b4:	b1 08       	sbc	r11, r1
     7b6:	e1 2c       	mov	r14, r1
     7b8:	f1 2c       	mov	r15, r1
     7ba:	34 e6       	ldi	r19, 0x64	; 100
     7bc:	43 2e       	mov	r4, r19
     7be:	51 2c       	mov	r5, r1
     7c0:	61 2c       	mov	r6, r1
     7c2:	71 2c       	mov	r7, r1
     7c4:	2c c0       	rjmp	.+88     	; 0x81e <menu2+0xc6>
		cal += check();
		if(cal >= 100) cal = 100;
		if(cal <= 0) cal = 0;
     7c6:	1e 14       	cp	r1, r14
     7c8:	1f 04       	cpc	r1, r15
     7ca:	0c f4       	brge	.+2      	; 0x7ce <menu2+0x76>
     7cc:	42 c0       	rjmp	.+132    	; 0x852 <menu2+0xfa>
     7ce:	20 e0       	ldi	r18, 0x00	; 0
     7d0:	30 e0       	ldi	r19, 0x00	; 0
     7d2:	e1 2c       	mov	r14, r1
     7d4:	f1 2c       	mov	r15, r1
#include "lcd.h"
#include "menus.h"

static int16_t map(int32_t x, int32_t in_min, int32_t in_max, int32_t out_min, int32_t out_max)
{
	return (x - in_min) * (out_max - out_min) / (in_max - in_min) + out_min;
     7d6:	81 01       	movw	r16, r2
     7d8:	02 0f       	add	r16, r18
     7da:	13 1f       	adc	r17, r19
	while(PINB&(1<<2)){
		cal += check();
		if(cal >= 100) cal = 100;
		if(cal <= 0) cal = 0;
		val = map(cal,0,100,low,high);
		sprintf(dis,"%s\n%u",str,val);
     7dc:	1f 93       	push	r17
     7de:	0f 93       	push	r16
     7e0:	2e 89       	ldd	r18, Y+22	; 0x16
     7e2:	2f 93       	push	r18
     7e4:	3d 89       	ldd	r19, Y+21	; 0x15
     7e6:	3f 93       	push	r19
     7e8:	8f e9       	ldi	r24, 0x9F	; 159
     7ea:	91 e0       	ldi	r25, 0x01	; 1
     7ec:	9f 93       	push	r25
     7ee:	8f 93       	push	r24
     7f0:	df 92       	push	r13
     7f2:	cf 92       	push	r12
     7f4:	0e 94 1b 09 	call	0x1236	; 0x1236 <sprintf>
		lcd_print(dis);
     7f8:	c6 01       	movw	r24, r12
     7fa:	0e 94 e6 06 	call	0xdcc	; 0xdcc <lcd_print>
		lcd_updateScreen(0);
     7fe:	80 e0       	ldi	r24, 0x00	; 0
     800:	0e 94 22 07 	call	0xe44	; 0xe44 <lcd_updateScreen>
     804:	8f e3       	ldi	r24, 0x3F	; 63
     806:	9c e9       	ldi	r25, 0x9C	; 156
     808:	01 97       	sbiw	r24, 0x01	; 1
     80a:	f1 f7       	brne	.-4      	; 0x808 <menu2+0xb0>
     80c:	00 c0       	rjmp	.+0      	; 0x80e <menu2+0xb6>
     80e:	00 00       	nop
uint16_t menu2(char str[],uint16_t high,uint16_t low){
	int16_t val = 0;
	int16_t cal = 0;

	char dis[20] = {0};
	while(PINB&(1<<2)){
     810:	0f b6       	in	r0, 0x3f	; 63
     812:	f8 94       	cli
     814:	de bf       	out	0x3e, r29	; 62
     816:	0f be       	out	0x3f, r0	; 63
     818:	cd bf       	out	0x3d, r28	; 61
     81a:	1a 9b       	sbis	0x03, 2	; 3
     81c:	20 c0       	rjmp	.+64     	; 0x85e <menu2+0x106>
		cal += check();
     81e:	0e 94 84 00 	call	0x108	; 0x108 <check>
     822:	e8 0e       	add	r14, r24
     824:	f1 1c       	adc	r15, r1
     826:	87 fd       	sbrc	r24, 7
     828:	fa 94       	dec	r15
		if(cal >= 100) cal = 100;
     82a:	f4 e6       	ldi	r31, 0x64	; 100
     82c:	ef 16       	cp	r14, r31
     82e:	f1 04       	cpc	r15, r1
     830:	54 f2       	brlt	.-108    	; 0x7c6 <menu2+0x6e>
     832:	64 e6       	ldi	r22, 0x64	; 100
     834:	70 e0       	ldi	r23, 0x00	; 0
     836:	80 e0       	ldi	r24, 0x00	; 0
     838:	90 e0       	ldi	r25, 0x00	; 0
     83a:	24 e6       	ldi	r18, 0x64	; 100
     83c:	e2 2e       	mov	r14, r18
     83e:	f1 2c       	mov	r15, r1
     840:	a5 01       	movw	r20, r10
     842:	94 01       	movw	r18, r8
     844:	0e 94 76 08 	call	0x10ec	; 0x10ec <__mulsi3>
     848:	a3 01       	movw	r20, r6
     84a:	92 01       	movw	r18, r4
     84c:	0e 94 bc 08 	call	0x1178	; 0x1178 <__divmodsi4>
     850:	c2 cf       	rjmp	.-124    	; 0x7d6 <menu2+0x7e>
     852:	b7 01       	movw	r22, r14
     854:	0f 2c       	mov	r0, r15
     856:	00 0c       	add	r0, r0
     858:	88 0b       	sbc	r24, r24
     85a:	99 0b       	sbc	r25, r25
     85c:	f1 cf       	rjmp	.-30     	; 0x840 <menu2+0xe8>
     85e:	c8 01       	movw	r24, r16
		sprintf(dis,"%s\n%u",str,val);
		lcd_print(dis);
		lcd_updateScreen(0);
		_delay_ms(10);
	}
	while(!(PINB&(1<<2)));
     860:	1a 9b       	sbis	0x03, 2	; 3
     862:	fe cf       	rjmp	.-4      	; 0x860 <menu2+0x108>
     864:	ff ef       	ldi	r31, 0xFF	; 255
     866:	25 ea       	ldi	r18, 0xA5	; 165
     868:	3e e0       	ldi	r19, 0x0E	; 14
     86a:	f1 50       	subi	r31, 0x01	; 1
     86c:	20 40       	sbci	r18, 0x00	; 0
     86e:	30 40       	sbci	r19, 0x00	; 0
     870:	e1 f7       	brne	.-8      	; 0x86a <menu2+0x112>
     872:	00 c0       	rjmp	.+0      	; 0x874 <menu2+0x11c>
     874:	00 00       	nop
	
	_delay_ms(300);
	return val;
}
     876:	66 96       	adiw	r28, 0x16	; 22
     878:	0f b6       	in	r0, 0x3f	; 63
     87a:	f8 94       	cli
     87c:	de bf       	out	0x3e, r29	; 62
     87e:	0f be       	out	0x3f, r0	; 63
     880:	cd bf       	out	0x3d, r28	; 61
     882:	df 91       	pop	r29
     884:	cf 91       	pop	r28
     886:	1f 91       	pop	r17
     888:	0f 91       	pop	r16
     88a:	ff 90       	pop	r15
     88c:	ef 90       	pop	r14
     88e:	df 90       	pop	r13
     890:	cf 90       	pop	r12
     892:	bf 90       	pop	r11
     894:	af 90       	pop	r10
     896:	9f 90       	pop	r9
     898:	8f 90       	pop	r8
     89a:	7f 90       	pop	r7
     89c:	6f 90       	pop	r6
     89e:	5f 90       	pop	r5
     8a0:	4f 90       	pop	r4
     8a2:	3f 90       	pop	r3
     8a4:	2f 90       	pop	r2
     8a6:	08 95       	ret
uint16_t menu2(char str[],uint16_t high,uint16_t low){
	int16_t val = 0;
	int16_t cal = 0;

	char dis[20] = {0};
	while(PINB&(1<<2)){
     8a8:	80 e0       	ldi	r24, 0x00	; 0
     8aa:	90 e0       	ldi	r25, 0x00	; 0
     8ac:	d9 cf       	rjmp	.-78     	; 0x860 <menu2+0x108>

000008ae <menu3>:
	
	_delay_ms(300);
	return val;
}

int16_t menu3(char str[],int16_t high,int16_t low,uint8_t place){ 
     8ae:	2f 92       	push	r2
     8b0:	3f 92       	push	r3
     8b2:	4f 92       	push	r4
     8b4:	5f 92       	push	r5
     8b6:	6f 92       	push	r6
     8b8:	7f 92       	push	r7
     8ba:	8f 92       	push	r8
     8bc:	9f 92       	push	r9
     8be:	af 92       	push	r10
     8c0:	bf 92       	push	r11
     8c2:	cf 92       	push	r12
     8c4:	df 92       	push	r13
     8c6:	ef 92       	push	r14
     8c8:	ff 92       	push	r15
     8ca:	0f 93       	push	r16
     8cc:	1f 93       	push	r17
     8ce:	cf 93       	push	r28
     8d0:	df 93       	push	r29
     8d2:	cd b7       	in	r28, 0x3d	; 61
     8d4:	de b7       	in	r29, 0x3e	; 62
     8d6:	68 97       	sbiw	r28, 0x18	; 24
     8d8:	0f b6       	in	r0, 0x3f	; 63
     8da:	f8 94       	cli
     8dc:	de bf       	out	0x3e, r29	; 62
     8de:	0f be       	out	0x3f, r0	; 63
     8e0:	cd bf       	out	0x3d, r28	; 61
	int16_t val = 0;
	int16_t cal = 0;
	char dis[20] = {0};
     8e2:	fe 01       	movw	r30, r28
     8e4:	31 96       	adiw	r30, 0x01	; 1
     8e6:	1f 01       	movw	r2, r30
     8e8:	34 e1       	ldi	r19, 0x14	; 20
     8ea:	11 92       	st	Z+, r1
     8ec:	3a 95       	dec	r19
     8ee:	e9 f7       	brne	.-6      	; 0x8ea <menu3+0x3c>
	int16_t exponent = 1;
	for(uint8_t i = 0; i < place; i++) exponent *= 5 , exponent <<= 1; // ???? mult by 10 doesnt work 
     8f0:	22 23       	and	r18, r18
     8f2:	09 f4       	brne	.+2      	; 0x8f6 <menu3+0x48>
     8f4:	c4 c0       	rjmp	.+392    	; 0xa7e <__stack+0x17f>
     8f6:	30 e0       	ldi	r19, 0x00	; 0
     8f8:	01 e0       	ldi	r16, 0x01	; 1
     8fa:	10 e0       	ldi	r17, 0x00	; 0
     8fc:	f8 01       	movw	r30, r16
     8fe:	ee 0f       	add	r30, r30
     900:	ff 1f       	adc	r31, r31
     902:	ee 0f       	add	r30, r30
     904:	ff 1f       	adc	r31, r31
     906:	0e 0f       	add	r16, r30
     908:	1f 1f       	adc	r17, r31
     90a:	00 0f       	add	r16, r16
     90c:	11 1f       	adc	r17, r17
     90e:	3f 5f       	subi	r19, 0xFF	; 255
     910:	23 13       	cpse	r18, r19
     912:	f4 cf       	rjmp	.-24     	; 0x8fc <menu3+0x4e>
	while(PINB&(1<<2)){
     914:	1a 9b       	sbis	0x03, 2	; 3
     916:	6f c0       	rjmp	.+222    	; 0x9f6 <__stack+0xf7>
     918:	5e 8b       	std	Y+22, r21	; 0x16
     91a:	4d 8b       	std	Y+21, r20	; 0x15
     91c:	4b 01       	movw	r8, r22
     91e:	98 8f       	std	Y+24, r25	; 0x18
     920:	8f 8b       	std	Y+23, r24	; 0x17
     922:	09 2c       	mov	r0, r9
     924:	00 0c       	add	r0, r0
     926:	aa 08       	sbc	r10, r10
     928:	bb 08       	sbc	r11, r11
     92a:	ca 01       	movw	r24, r20
     92c:	55 0f       	add	r21, r21
     92e:	aa 0b       	sbc	r26, r26
     930:	bb 0b       	sbc	r27, r27
     932:	88 1a       	sub	r8, r24
     934:	99 0a       	sbc	r9, r25
     936:	aa 0a       	sbc	r10, r26
     938:	bb 0a       	sbc	r11, r27
     93a:	c1 2c       	mov	r12, r1
     93c:	d1 2c       	mov	r13, r1
#include "lcd.h"
#include "menus.h"

static int16_t map(int32_t x, int32_t in_min, int32_t in_max, int32_t out_min, int32_t out_max)
{
	return (x - in_min) * (out_max - out_min) / (in_max - in_min) + out_min;
     93e:	44 e6       	ldi	r20, 0x64	; 100
     940:	44 2e       	mov	r4, r20
     942:	51 2c       	mov	r5, r1
     944:	61 2c       	mov	r6, r1
     946:	71 2c       	mov	r7, r1
     948:	43 c0       	rjmp	.+134    	; 0x9d0 <__stack+0xd1>
	int16_t exponent = 1;
	for(uint8_t i = 0; i < place; i++) exponent *= 5 , exponent <<= 1; // ???? mult by 10 doesnt work 
	while(PINB&(1<<2)){
		cal += check();
		if(cal >= 75) cal = 75;
		if(cal <= -75) cal = -75;
     94a:	26 eb       	ldi	r18, 0xB6	; 182
     94c:	c2 16       	cp	r12, r18
     94e:	2f ef       	ldi	r18, 0xFF	; 255
     950:	d2 06       	cpc	r13, r18
     952:	0c f0       	brlt	.+2      	; 0x956 <__stack+0x57>
     954:	97 c0       	rjmp	.+302    	; 0xa84 <__stack+0x185>
     956:	67 ee       	ldi	r22, 0xE7	; 231
     958:	7f ef       	ldi	r23, 0xFF	; 255
     95a:	8f ef       	ldi	r24, 0xFF	; 255
     95c:	9f ef       	ldi	r25, 0xFF	; 255
     95e:	25 eb       	ldi	r18, 0xB5	; 181
     960:	c2 2e       	mov	r12, r18
     962:	dd 24       	eor	r13, r13
     964:	da 94       	dec	r13
#include "lcd.h"
#include "menus.h"

static int16_t map(int32_t x, int32_t in_min, int32_t in_max, int32_t out_min, int32_t out_max)
{
	return (x - in_min) * (out_max - out_min) / (in_max - in_min) + out_min;
     966:	a5 01       	movw	r20, r10
     968:	94 01       	movw	r18, r8
     96a:	0e 94 76 08 	call	0x10ec	; 0x10ec <__mulsi3>
     96e:	a3 01       	movw	r20, r6
     970:	92 01       	movw	r18, r4
     972:	0e 94 bc 08 	call	0x1178	; 0x1178 <__divmodsi4>
     976:	ed 88       	ldd	r14, Y+21	; 0x15
     978:	fe 88       	ldd	r15, Y+22	; 0x16
     97a:	e2 0e       	add	r14, r18
     97c:	f3 1e       	adc	r15, r19
	while(PINB&(1<<2)){
		cal += check();
		if(cal >= 75) cal = 75;
		if(cal <= -75) cal = -75;
		val = map(cal,-50,50,low,high);
		if((val < 0))
     97e:	f7 fc       	sbrc	r15, 7
     980:	61 c0       	rjmp	.+194    	; 0xa44 <__stack+0x145>
			sprintf(dis,"%s\n-%u.%u",str,((val < 0)?-val:val)/exponent,((val < 0)?-val:val)%exponent);
		else 
			sprintf(dis,"%s\n%u.%u",str,((val < 0)?-val:val)/exponent,((val < 0)?-val:val)%exponent);
     982:	c7 01       	movw	r24, r14
     984:	b8 01       	movw	r22, r16
     986:	0e 94 86 08 	call	0x110c	; 0x110c <__divmodhi4>
     98a:	9f 93       	push	r25
     98c:	8f 93       	push	r24
     98e:	7f 93       	push	r23
     990:	6f 93       	push	r22
     992:	98 8d       	ldd	r25, Y+24	; 0x18
     994:	9f 93       	push	r25
     996:	ef 89       	ldd	r30, Y+23	; 0x17
     998:	ef 93       	push	r30
     99a:	2f ea       	ldi	r18, 0xAF	; 175
     99c:	31 e0       	ldi	r19, 0x01	; 1
     99e:	3f 93       	push	r19
     9a0:	2f 93       	push	r18
     9a2:	3f 92       	push	r3
     9a4:	2f 92       	push	r2
     9a6:	0e 94 1b 09 	call	0x1236	; 0x1236 <sprintf>
     9aa:	0f b6       	in	r0, 0x3f	; 63
     9ac:	f8 94       	cli
     9ae:	de bf       	out	0x3e, r29	; 62
     9b0:	0f be       	out	0x3f, r0	; 63
     9b2:	cd bf       	out	0x3d, r28	; 61
		lcd_print(dis);
     9b4:	c1 01       	movw	r24, r2
     9b6:	0e 94 e6 06 	call	0xdcc	; 0xdcc <lcd_print>
		lcd_updateScreen(0);
     9ba:	80 e0       	ldi	r24, 0x00	; 0
     9bc:	0e 94 22 07 	call	0xe44	; 0xe44 <lcd_updateScreen>
     9c0:	8f e3       	ldi	r24, 0x3F	; 63
     9c2:	9c e9       	ldi	r25, 0x9C	; 156
     9c4:	01 97       	sbiw	r24, 0x01	; 1
     9c6:	f1 f7       	brne	.-4      	; 0x9c4 <__stack+0xc5>
     9c8:	00 c0       	rjmp	.+0      	; 0x9ca <__stack+0xcb>
     9ca:	00 00       	nop
	int16_t val = 0;
	int16_t cal = 0;
	char dis[20] = {0};
	int16_t exponent = 1;
	for(uint8_t i = 0; i < place; i++) exponent *= 5 , exponent <<= 1; // ???? mult by 10 doesnt work 
	while(PINB&(1<<2)){
     9cc:	1a 9b       	sbis	0x03, 2	; 3
     9ce:	15 c0       	rjmp	.+42     	; 0x9fa <__stack+0xfb>
		cal += check();
     9d0:	0e 94 84 00 	call	0x108	; 0x108 <check>
     9d4:	c8 0e       	add	r12, r24
     9d6:	d1 1c       	adc	r13, r1
     9d8:	87 fd       	sbrc	r24, 7
     9da:	da 94       	dec	r13
		if(cal >= 75) cal = 75;
     9dc:	fb e4       	ldi	r31, 0x4B	; 75
     9de:	cf 16       	cp	r12, r31
     9e0:	d1 04       	cpc	r13, r1
     9e2:	0c f4       	brge	.+2      	; 0x9e6 <__stack+0xe7>
     9e4:	b2 cf       	rjmp	.-156    	; 0x94a <__stack+0x4b>
     9e6:	6d e7       	ldi	r22, 0x7D	; 125
     9e8:	70 e0       	ldi	r23, 0x00	; 0
     9ea:	80 e0       	ldi	r24, 0x00	; 0
     9ec:	90 e0       	ldi	r25, 0x00	; 0
     9ee:	3b e4       	ldi	r19, 0x4B	; 75
     9f0:	c3 2e       	mov	r12, r19
     9f2:	d1 2c       	mov	r13, r1
     9f4:	b8 cf       	rjmp	.-144    	; 0x966 <__stack+0x67>
	int16_t val = 0;
	int16_t cal = 0;
	char dis[20] = {0};
	int16_t exponent = 1;
	for(uint8_t i = 0; i < place; i++) exponent *= 5 , exponent <<= 1; // ???? mult by 10 doesnt work 
	while(PINB&(1<<2)){
     9f6:	e1 2c       	mov	r14, r1
     9f8:	f1 2c       	mov	r15, r1
			sprintf(dis,"%s\n%u.%u",str,((val < 0)?-val:val)/exponent,((val < 0)?-val:val)%exponent);
		lcd_print(dis);
		lcd_updateScreen(0);
		_delay_ms(10);
	}
	while(!(PINB&(1<<2)));
     9fa:	1a 9b       	sbis	0x03, 2	; 3
     9fc:	fe cf       	rjmp	.-4      	; 0x9fa <__stack+0xfb>
     9fe:	9f ef       	ldi	r25, 0xFF	; 255
     a00:	e5 ea       	ldi	r30, 0xA5	; 165
     a02:	fe e0       	ldi	r31, 0x0E	; 14
     a04:	91 50       	subi	r25, 0x01	; 1
     a06:	e0 40       	sbci	r30, 0x00	; 0
     a08:	f0 40       	sbci	r31, 0x00	; 0
     a0a:	e1 f7       	brne	.-8      	; 0xa04 <__stack+0x105>
     a0c:	00 c0       	rjmp	.+0      	; 0xa0e <__stack+0x10f>
     a0e:	00 00       	nop
	
	_delay_ms(300);
	return val;
     a10:	c7 01       	movw	r24, r14
     a12:	68 96       	adiw	r28, 0x18	; 24
     a14:	0f b6       	in	r0, 0x3f	; 63
     a16:	f8 94       	cli
     a18:	de bf       	out	0x3e, r29	; 62
     a1a:	0f be       	out	0x3f, r0	; 63
     a1c:	cd bf       	out	0x3d, r28	; 61
     a1e:	df 91       	pop	r29
     a20:	cf 91       	pop	r28
     a22:	1f 91       	pop	r17
     a24:	0f 91       	pop	r16
     a26:	ff 90       	pop	r15
     a28:	ef 90       	pop	r14
     a2a:	df 90       	pop	r13
     a2c:	cf 90       	pop	r12
     a2e:	bf 90       	pop	r11
     a30:	af 90       	pop	r10
     a32:	9f 90       	pop	r9
     a34:	8f 90       	pop	r8
     a36:	7f 90       	pop	r7
     a38:	6f 90       	pop	r6
     a3a:	5f 90       	pop	r5
     a3c:	4f 90       	pop	r4
     a3e:	3f 90       	pop	r3
     a40:	2f 90       	pop	r2
     a42:	08 95       	ret
		cal += check();
		if(cal >= 75) cal = 75;
		if(cal <= -75) cal = -75;
		val = map(cal,-50,50,low,high);
		if((val < 0))
			sprintf(dis,"%s\n-%u.%u",str,((val < 0)?-val:val)/exponent,((val < 0)?-val:val)%exponent);
     a44:	88 27       	eor	r24, r24
     a46:	99 27       	eor	r25, r25
     a48:	8e 19       	sub	r24, r14
     a4a:	9f 09       	sbc	r25, r15
     a4c:	b8 01       	movw	r22, r16
     a4e:	0e 94 86 08 	call	0x110c	; 0x110c <__divmodhi4>
     a52:	9f 93       	push	r25
     a54:	8f 93       	push	r24
     a56:	7f 93       	push	r23
     a58:	6f 93       	push	r22
     a5a:	38 8d       	ldd	r19, Y+24	; 0x18
     a5c:	3f 93       	push	r19
     a5e:	8f 89       	ldd	r24, Y+23	; 0x17
     a60:	8f 93       	push	r24
     a62:	e5 ea       	ldi	r30, 0xA5	; 165
     a64:	f1 e0       	ldi	r31, 0x01	; 1
     a66:	ff 93       	push	r31
     a68:	ef 93       	push	r30
     a6a:	3f 92       	push	r3
     a6c:	2f 92       	push	r2
     a6e:	0e 94 1b 09 	call	0x1236	; 0x1236 <sprintf>
     a72:	0f b6       	in	r0, 0x3f	; 63
     a74:	f8 94       	cli
     a76:	de bf       	out	0x3e, r29	; 62
     a78:	0f be       	out	0x3f, r0	; 63
     a7a:	cd bf       	out	0x3d, r28	; 61
     a7c:	9b cf       	rjmp	.-202    	; 0x9b4 <__stack+0xb5>

int16_t menu3(char str[],int16_t high,int16_t low,uint8_t place){ 
	int16_t val = 0;
	int16_t cal = 0;
	char dis[20] = {0};
	int16_t exponent = 1;
     a7e:	01 e0       	ldi	r16, 0x01	; 1
     a80:	10 e0       	ldi	r17, 0x00	; 0
     a82:	48 cf       	rjmp	.-368    	; 0x914 <__stack+0x15>
     a84:	c6 01       	movw	r24, r12
     a86:	0d 2c       	mov	r0, r13
     a88:	00 0c       	add	r0, r0
     a8a:	aa 0b       	sbc	r26, r26
     a8c:	bb 0b       	sbc	r27, r27
     a8e:	bc 01       	movw	r22, r24
     a90:	cd 01       	movw	r24, r26
     a92:	6e 5c       	subi	r22, 0xCE	; 206
     a94:	7f 4f       	sbci	r23, 0xFF	; 255
     a96:	8f 4f       	sbci	r24, 0xFF	; 255
     a98:	9f 4f       	sbci	r25, 0xFF	; 255
     a9a:	65 cf       	rjmp	.-310    	; 0x966 <__stack+0x67>

00000a9c <lcd_send.constprop.1>:
uint8_t flip(uint8_t val){
	uint8_t ret = (val&1);
	for(uint8_t i = 0; i < 7; i++) {
		val >>= 1;
		ret <<= 1;
		ret  |= (val&1);
     a9c:	29 98       	cbi	0x05, 1	; 5
     a9e:	90 91 fe 01 	lds	r25, 0x01FE	; 0x8001fe <_displayfunction>
     aa2:	94 fd       	sbrc	r25, 4
     aa4:	43 c0       	rjmp	.+134    	; 0xb2c <lcd_send.constprop.1+0x90>
     aa6:	98 2f       	mov	r25, r24
     aa8:	92 95       	swap	r25
     aaa:	9f 70       	andi	r25, 0x0F	; 15
     aac:	29 2f       	mov	r18, r25
     aae:	21 70       	andi	r18, 0x01	; 1
     ab0:	96 95       	lsr	r25
     ab2:	39 2f       	mov	r19, r25
     ab4:	31 70       	andi	r19, 0x01	; 1
     ab6:	22 0f       	add	r18, r18
     ab8:	23 2b       	or	r18, r19
     aba:	96 95       	lsr	r25
     abc:	39 2f       	mov	r19, r25
     abe:	31 70       	andi	r19, 0x01	; 1
     ac0:	22 0f       	add	r18, r18
     ac2:	23 2b       	or	r18, r19
     ac4:	96 95       	lsr	r25
     ac6:	22 0f       	add	r18, r18
     ac8:	92 2b       	or	r25, r18
     aca:	9b b9       	out	0x0b, r25	; 11
     acc:	28 9a       	sbi	0x05, 0	; 5
     ace:	95 e0       	ldi	r25, 0x05	; 5
     ad0:	9a 95       	dec	r25
     ad2:	f1 f7       	brne	.-4      	; 0xad0 <lcd_send.constprop.1+0x34>
     ad4:	00 00       	nop
     ad6:	28 98       	cbi	0x05, 0	; 5
     ad8:	95 e0       	ldi	r25, 0x05	; 5
     ada:	9a 95       	dec	r25
     adc:	f1 f7       	brne	.-4      	; 0xada <lcd_send.constprop.1+0x3e>
     ade:	00 00       	nop
     ae0:	28 9a       	sbi	0x05, 0	; 5
     ae2:	95 ed       	ldi	r25, 0xD5	; 213
     ae4:	9a 95       	dec	r25
     ae6:	f1 f7       	brne	.-4      	; 0xae4 <lcd_send.constprop.1+0x48>
     ae8:	00 00       	nop
     aea:	98 2f       	mov	r25, r24
     aec:	91 70       	andi	r25, 0x01	; 1
     aee:	86 95       	lsr	r24
     af0:	28 2f       	mov	r18, r24
     af2:	21 70       	andi	r18, 0x01	; 1
     af4:	99 0f       	add	r25, r25
     af6:	92 2b       	or	r25, r18
     af8:	86 95       	lsr	r24
     afa:	28 2f       	mov	r18, r24
     afc:	21 70       	andi	r18, 0x01	; 1
     afe:	99 0f       	add	r25, r25
     b00:	92 2b       	or	r25, r18
     b02:	86 95       	lsr	r24
     b04:	81 70       	andi	r24, 0x01	; 1
     b06:	99 0f       	add	r25, r25
     b08:	89 2b       	or	r24, r25
     b0a:	8b b9       	out	0x0b, r24	; 11
     b0c:	28 9a       	sbi	0x05, 0	; 5
     b0e:	85 e0       	ldi	r24, 0x05	; 5
     b10:	8a 95       	dec	r24
     b12:	f1 f7       	brne	.-4      	; 0xb10 <lcd_send.constprop.1+0x74>
     b14:	00 00       	nop
     b16:	28 98       	cbi	0x05, 0	; 5
     b18:	95 e0       	ldi	r25, 0x05	; 5
     b1a:	9a 95       	dec	r25
     b1c:	f1 f7       	brne	.-4      	; 0xb1a <lcd_send.constprop.1+0x7e>
     b1e:	00 00       	nop
     b20:	28 9a       	sbi	0x05, 0	; 5
     b22:	85 ed       	ldi	r24, 0xD5	; 213
     b24:	8a 95       	dec	r24
     b26:	f1 f7       	brne	.-4      	; 0xb24 <lcd_send.constprop.1+0x88>
     b28:	00 00       	nop
     b2a:	08 95       	ret
     b2c:	98 2f       	mov	r25, r24
     b2e:	91 70       	andi	r25, 0x01	; 1
     b30:	86 95       	lsr	r24
     b32:	99 0f       	add	r25, r25
     b34:	28 2f       	mov	r18, r24
     b36:	21 70       	andi	r18, 0x01	; 1
     b38:	92 2b       	or	r25, r18
     b3a:	86 95       	lsr	r24
     b3c:	99 0f       	add	r25, r25
     b3e:	28 2f       	mov	r18, r24
     b40:	21 70       	andi	r18, 0x01	; 1
     b42:	92 2b       	or	r25, r18
     b44:	86 95       	lsr	r24
     b46:	99 0f       	add	r25, r25
     b48:	28 2f       	mov	r18, r24
     b4a:	21 70       	andi	r18, 0x01	; 1
     b4c:	92 2b       	or	r25, r18
     b4e:	86 95       	lsr	r24
     b50:	99 0f       	add	r25, r25
     b52:	28 2f       	mov	r18, r24
     b54:	21 70       	andi	r18, 0x01	; 1
     b56:	92 2b       	or	r25, r18
     b58:	86 95       	lsr	r24
     b5a:	99 0f       	add	r25, r25
     b5c:	28 2f       	mov	r18, r24
     b5e:	21 70       	andi	r18, 0x01	; 1
     b60:	92 2b       	or	r25, r18
     b62:	86 95       	lsr	r24
     b64:	28 2f       	mov	r18, r24
     b66:	21 70       	andi	r18, 0x01	; 1
     b68:	99 0f       	add	r25, r25
     b6a:	92 2b       	or	r25, r18
     b6c:	86 95       	lsr	r24
     b6e:	cb cf       	rjmp	.-106    	; 0xb06 <lcd_send.constprop.1+0x6a>

00000b70 <lcd_init>:
     b70:	9e e0       	ldi	r25, 0x0E	; 14
     b72:	ee e1       	ldi	r30, 0x1E	; 30
     b74:	f2 e0       	ldi	r31, 0x02	; 2
     b76:	df 01       	movw	r26, r30
     b78:	1d 92       	st	X+, r1
     b7a:	9a 95       	dec	r25
     b7c:	e9 f7       	brne	.-6      	; 0xb78 <lcd_init+0x8>
     b7e:	9f ef       	ldi	r25, 0xFF	; 255
     b80:	9a b9       	out	0x0a, r25	; 10
     b82:	94 b1       	in	r25, 0x04	; 4
     b84:	93 60       	ori	r25, 0x03	; 3
     b86:	94 b9       	out	0x04, r25	; 4
     b88:	62 30       	cpi	r22, 0x02	; 2
     b8a:	08 f4       	brcc	.+2      	; 0xb8e <lcd_init+0x1e>
     b8c:	af c0       	rjmp	.+350    	; 0xcec <lcd_init+0x17c>
     b8e:	98 e1       	ldi	r25, 0x18	; 24
     b90:	90 93 fe 01 	sts	0x01FE, r25	; 0x8001fe <_displayfunction>
     b94:	60 93 1d 02 	sts	0x021D, r22	; 0x80021d <_numlines>
     b98:	10 92 19 02 	sts	0x0219, r1	; 0x800219 <_row_offsets>
     b9c:	90 e4       	ldi	r25, 0x40	; 64
     b9e:	90 93 1a 02 	sts	0x021A, r25	; 0x80021a <_row_offsets+0x1>
     ba2:	80 93 1b 02 	sts	0x021B, r24	; 0x80021b <_row_offsets+0x2>
     ba6:	90 e0       	ldi	r25, 0x00	; 0
     ba8:	80 5c       	subi	r24, 0xC0	; 192
     baa:	9f 4f       	sbci	r25, 0xFF	; 255
     bac:	80 93 1c 02 	sts	0x021C, r24	; 0x80021c <_row_offsets+0x3>
     bb0:	8f ef       	ldi	r24, 0xFF	; 255
     bb2:	8a b9       	out	0x0a, r24	; 10
     bb4:	84 b1       	in	r24, 0x04	; 4
     bb6:	83 60       	ori	r24, 0x03	; 3
     bb8:	84 b9       	out	0x04, r24	; 4
     bba:	1b b8       	out	0x0b, r1	; 11
     bbc:	85 b1       	in	r24, 0x05	; 5
     bbe:	8c 7f       	andi	r24, 0xFC	; 252
     bc0:	85 b9       	out	0x05, r24	; 5
     bc2:	bf ef       	ldi	r27, 0xFF	; 255
     bc4:	e0 e7       	ldi	r30, 0x70	; 112
     bc6:	f2 e0       	ldi	r31, 0x02	; 2
     bc8:	b1 50       	subi	r27, 0x01	; 1
     bca:	e0 40       	sbci	r30, 0x00	; 0
     bcc:	f0 40       	sbci	r31, 0x00	; 0
     bce:	e1 f7       	brne	.-8      	; 0xbc8 <lcd_init+0x58>
     bd0:	00 c0       	rjmp	.+0      	; 0xbd2 <lcd_init+0x62>
     bd2:	00 00       	nop
     bd4:	80 91 fe 01 	lds	r24, 0x01FE	; 0x8001fe <_displayfunction>
     bd8:	84 ff       	sbrs	r24, 4
     bda:	33 c0       	rjmp	.+102    	; 0xc42 <lcd_init+0xd2>
     bdc:	80 62       	ori	r24, 0x20	; 32
     bde:	0e 94 4e 05 	call	0xa9c	; 0xa9c <lcd_send.constprop.1>
     be2:	ef e4       	ldi	r30, 0x4F	; 79
     be4:	f6 e4       	ldi	r31, 0x46	; 70
     be6:	31 97       	sbiw	r30, 0x01	; 1
     be8:	f1 f7       	brne	.-4      	; 0xbe6 <lcd_init+0x76>
     bea:	00 c0       	rjmp	.+0      	; 0xbec <lcd_init+0x7c>
     bec:	00 00       	nop
     bee:	80 91 fe 01 	lds	r24, 0x01FE	; 0x8001fe <_displayfunction>
     bf2:	80 62       	ori	r24, 0x20	; 32
     bf4:	0e 94 4e 05 	call	0xa9c	; 0xa9c <lcd_send.constprop.1>
     bf8:	87 e5       	ldi	r24, 0x57	; 87
     bfa:	92 e0       	ldi	r25, 0x02	; 2
     bfc:	01 97       	sbiw	r24, 0x01	; 1
     bfe:	f1 f7       	brne	.-4      	; 0xbfc <lcd_init+0x8c>
     c00:	00 c0       	rjmp	.+0      	; 0xc02 <lcd_init+0x92>
     c02:	00 00       	nop
     c04:	80 91 fe 01 	lds	r24, 0x01FE	; 0x8001fe <_displayfunction>
     c08:	80 62       	ori	r24, 0x20	; 32
     c0a:	0e 94 4e 05 	call	0xa9c	; 0xa9c <lcd_send.constprop.1>
     c0e:	80 91 fe 01 	lds	r24, 0x01FE	; 0x8001fe <_displayfunction>
     c12:	80 62       	ori	r24, 0x20	; 32
     c14:	0e 94 4e 05 	call	0xa9c	; 0xa9c <lcd_send.constprop.1>
     c18:	84 e0       	ldi	r24, 0x04	; 4
     c1a:	80 93 00 02 	sts	0x0200, r24	; 0x800200 <_displaycontrol>
     c1e:	8c e0       	ldi	r24, 0x0C	; 12
     c20:	0e 94 4e 05 	call	0xa9c	; 0xa9c <lcd_send.constprop.1>
     c24:	81 e0       	ldi	r24, 0x01	; 1
     c26:	0e 94 4e 05 	call	0xa9c	; 0xa9c <lcd_send.constprop.1>
     c2a:	af e3       	ldi	r26, 0x3F	; 63
     c2c:	bf e1       	ldi	r27, 0x1F	; 31
     c2e:	11 97       	sbiw	r26, 0x01	; 1
     c30:	f1 f7       	brne	.-4      	; 0xc2e <lcd_init+0xbe>
     c32:	00 c0       	rjmp	.+0      	; 0xc34 <lcd_init+0xc4>
     c34:	00 00       	nop
     c36:	82 e0       	ldi	r24, 0x02	; 2
     c38:	80 93 ff 01 	sts	0x01FF, r24	; 0x8001ff <_displaymode>
     c3c:	86 e0       	ldi	r24, 0x06	; 6
     c3e:	0c 94 4e 05 	jmp	0xa9c	; 0xa9c <lcd_send.constprop.1>
     c42:	8c e0       	ldi	r24, 0x0C	; 12
     c44:	8b b9       	out	0x0b, r24	; 11
     c46:	28 9a       	sbi	0x05, 0	; 5
     c48:	25 e0       	ldi	r18, 0x05	; 5
     c4a:	2a 95       	dec	r18
     c4c:	f1 f7       	brne	.-4      	; 0xc4a <lcd_init+0xda>
     c4e:	00 00       	nop
     c50:	28 98       	cbi	0x05, 0	; 5
     c52:	95 e0       	ldi	r25, 0x05	; 5
     c54:	9a 95       	dec	r25
     c56:	f1 f7       	brne	.-4      	; 0xc54 <lcd_init+0xe4>
     c58:	00 00       	nop
     c5a:	28 9a       	sbi	0x05, 0	; 5
     c5c:	a5 ed       	ldi	r26, 0xD5	; 213
     c5e:	aa 95       	dec	r26
     c60:	f1 f7       	brne	.-4      	; 0xc5e <lcd_init+0xee>
     c62:	00 00       	nop
     c64:	ef e4       	ldi	r30, 0x4F	; 79
     c66:	f6 e4       	ldi	r31, 0x46	; 70
     c68:	31 97       	sbiw	r30, 0x01	; 1
     c6a:	f1 f7       	brne	.-4      	; 0xc68 <lcd_init+0xf8>
     c6c:	00 c0       	rjmp	.+0      	; 0xc6e <lcd_init+0xfe>
     c6e:	00 00       	nop
     c70:	8b b9       	out	0x0b, r24	; 11
     c72:	28 9a       	sbi	0x05, 0	; 5
     c74:	f5 e0       	ldi	r31, 0x05	; 5
     c76:	fa 95       	dec	r31
     c78:	f1 f7       	brne	.-4      	; 0xc76 <lcd_init+0x106>
     c7a:	00 00       	nop
     c7c:	28 98       	cbi	0x05, 0	; 5
     c7e:	25 e0       	ldi	r18, 0x05	; 5
     c80:	2a 95       	dec	r18
     c82:	f1 f7       	brne	.-4      	; 0xc80 <lcd_init+0x110>
     c84:	00 00       	nop
     c86:	28 9a       	sbi	0x05, 0	; 5
     c88:	95 ed       	ldi	r25, 0xD5	; 213
     c8a:	9a 95       	dec	r25
     c8c:	f1 f7       	brne	.-4      	; 0xc8a <lcd_init+0x11a>
     c8e:	00 00       	nop
     c90:	af e4       	ldi	r26, 0x4F	; 79
     c92:	b6 e4       	ldi	r27, 0x46	; 70
     c94:	11 97       	sbiw	r26, 0x01	; 1
     c96:	f1 f7       	brne	.-4      	; 0xc94 <lcd_init+0x124>
     c98:	00 c0       	rjmp	.+0      	; 0xc9a <lcd_init+0x12a>
     c9a:	00 00       	nop
     c9c:	8b b9       	out	0x0b, r24	; 11
     c9e:	28 9a       	sbi	0x05, 0	; 5
     ca0:	b5 e0       	ldi	r27, 0x05	; 5
     ca2:	ba 95       	dec	r27
     ca4:	f1 f7       	brne	.-4      	; 0xca2 <lcd_init+0x132>
     ca6:	00 00       	nop
     ca8:	28 98       	cbi	0x05, 0	; 5
     caa:	e5 e0       	ldi	r30, 0x05	; 5
     cac:	ea 95       	dec	r30
     cae:	f1 f7       	brne	.-4      	; 0xcac <lcd_init+0x13c>
     cb0:	00 00       	nop
     cb2:	28 9a       	sbi	0x05, 0	; 5
     cb4:	f5 ed       	ldi	r31, 0xD5	; 213
     cb6:	fa 95       	dec	r31
     cb8:	f1 f7       	brne	.-4      	; 0xcb6 <lcd_init+0x146>
     cba:	00 00       	nop
     cbc:	87 e5       	ldi	r24, 0x57	; 87
     cbe:	92 e0       	ldi	r25, 0x02	; 2
     cc0:	01 97       	sbiw	r24, 0x01	; 1
     cc2:	f1 f7       	brne	.-4      	; 0xcc0 <lcd_init+0x150>
     cc4:	00 c0       	rjmp	.+0      	; 0xcc6 <lcd_init+0x156>
     cc6:	00 00       	nop
     cc8:	84 e0       	ldi	r24, 0x04	; 4
     cca:	8b b9       	out	0x0b, r24	; 11
     ccc:	28 9a       	sbi	0x05, 0	; 5
     cce:	95 e0       	ldi	r25, 0x05	; 5
     cd0:	9a 95       	dec	r25
     cd2:	f1 f7       	brne	.-4      	; 0xcd0 <lcd_init+0x160>
     cd4:	00 00       	nop
     cd6:	28 98       	cbi	0x05, 0	; 5
     cd8:	a5 e0       	ldi	r26, 0x05	; 5
     cda:	aa 95       	dec	r26
     cdc:	f1 f7       	brne	.-4      	; 0xcda <lcd_init+0x16a>
     cde:	00 00       	nop
     ce0:	28 9a       	sbi	0x05, 0	; 5
     ce2:	b5 ed       	ldi	r27, 0xD5	; 213
     ce4:	ba 95       	dec	r27
     ce6:	f1 f7       	brne	.-4      	; 0xce4 <lcd_init+0x174>
     ce8:	00 00       	nop
     cea:	91 cf       	rjmp	.-222    	; 0xc0e <lcd_init+0x9e>
     cec:	90 e1       	ldi	r25, 0x10	; 16
     cee:	90 93 fe 01 	sts	0x01FE, r25	; 0x8001fe <_displayfunction>
     cf2:	50 cf       	rjmp	.-352    	; 0xb94 <lcd_init+0x24>

00000cf4 <lcd_write>:

/************ low level data pushing commands **********/

// write either command or data, with automatic 4/8-bit selection
static void lcd_send(uint8_t value, uint8_t mode) {
	PORTB = (mode)? PORTB | 2: PORTB & ~(2);	
     cf4:	29 9a       	sbi	0x05, 1	; 5
	if (_displayfunction & LCD_8BITMODE) {
     cf6:	90 91 fe 01 	lds	r25, 0x01FE	; 0x8001fe <_displayfunction>
     cfa:	94 fd       	sbrc	r25, 4
     cfc:	45 c0       	rjmp	.+138    	; 0xd88 <lcd_write+0x94>
		lcd_write8bits(value);
		} else {
		lcd_write4bits(value>>4);
     cfe:	98 2f       	mov	r25, r24
     d00:	92 95       	swap	r25
     d02:	9f 70       	andi	r25, 0x0F	; 15
	_delay_us(1);    // enable pulse must be >450ns
	PORTB |= 1;
	_delay_us(40);   // commands need > 37us to settle
}
uint8_t flip(uint8_t val){
	uint8_t ret = (val&1);
     d04:	29 2f       	mov	r18, r25
     d06:	21 70       	andi	r18, 0x01	; 1
	for(uint8_t i = 0; i < 7; i++) {
		val >>= 1;
     d08:	96 95       	lsr	r25
		ret <<= 1;
		ret  |= (val&1);
     d0a:	39 2f       	mov	r19, r25
     d0c:	31 70       	andi	r19, 0x01	; 1
     d0e:	22 0f       	add	r18, r18
     d10:	23 2b       	or	r18, r19
	_delay_us(40);   // commands need > 37us to settle
}
uint8_t flip(uint8_t val){
	uint8_t ret = (val&1);
	for(uint8_t i = 0; i < 7; i++) {
		val >>= 1;
     d12:	96 95       	lsr	r25
		ret <<= 1;
		ret  |= (val&1);
     d14:	39 2f       	mov	r19, r25
     d16:	31 70       	andi	r19, 0x01	; 1
     d18:	22 0f       	add	r18, r18
     d1a:	23 2b       	or	r18, r19
     d1c:	96 95       	lsr	r25
     d1e:	22 0f       	add	r18, r18
	}
	return ret;
}
static void lcd_write4bits(uint8_t value) {
	PORTD = flip(value) >> 4;
     d20:	92 2b       	or	r25, r18
     d22:	9b b9       	out	0x0b, r25	; 11
		lcd_write4bits(value);
	}
}

static  void lcd_pulseEnable(void) {
	PORTB |= 1;
     d24:	28 9a       	sbi	0x05, 0	; 5
	#else
		//round up by default
		__ticks_dc = (uint32_t)(ceil(fabs(__tmp)));
	#endif

	__builtin_avr_delay_cycles(__ticks_dc);
     d26:	95 e0       	ldi	r25, 0x05	; 5
     d28:	9a 95       	dec	r25
     d2a:	f1 f7       	brne	.-4      	; 0xd28 <lcd_write+0x34>
     d2c:	00 00       	nop
	_delay_us(1);
	PORTB &= ~(1);
     d2e:	28 98       	cbi	0x05, 0	; 5
     d30:	95 e0       	ldi	r25, 0x05	; 5
     d32:	9a 95       	dec	r25
     d34:	f1 f7       	brne	.-4      	; 0xd32 <lcd_write+0x3e>
     d36:	00 00       	nop
	_delay_us(1);    // enable pulse must be >450ns
	PORTB |= 1;
     d38:	28 9a       	sbi	0x05, 0	; 5
     d3a:	95 ed       	ldi	r25, 0xD5	; 213
     d3c:	9a 95       	dec	r25
     d3e:	f1 f7       	brne	.-4      	; 0xd3c <lcd_write+0x48>
     d40:	00 00       	nop
	_delay_us(40);   // commands need > 37us to settle
}
uint8_t flip(uint8_t val){
	uint8_t ret = (val&1);
     d42:	98 2f       	mov	r25, r24
     d44:	91 70       	andi	r25, 0x01	; 1
	for(uint8_t i = 0; i < 7; i++) {
		val >>= 1;
     d46:	86 95       	lsr	r24
		ret <<= 1;
		ret  |= (val&1);
     d48:	28 2f       	mov	r18, r24
     d4a:	21 70       	andi	r18, 0x01	; 1
     d4c:	99 0f       	add	r25, r25
     d4e:	92 2b       	or	r25, r18
	_delay_us(40);   // commands need > 37us to settle
}
uint8_t flip(uint8_t val){
	uint8_t ret = (val&1);
	for(uint8_t i = 0; i < 7; i++) {
		val >>= 1;
     d50:	86 95       	lsr	r24
		ret <<= 1;
		ret  |= (val&1);
     d52:	28 2f       	mov	r18, r24
     d54:	21 70       	andi	r18, 0x01	; 1
     d56:	99 0f       	add	r25, r25
     d58:	92 2b       	or	r25, r18
     d5a:	86 95       	lsr	r24
     d5c:	81 70       	andi	r24, 0x01	; 1
     d5e:	99 0f       	add	r25, r25
	}
	return ret;
}
static void lcd_write4bits(uint8_t value) {
	PORTD = flip(value) >> 4;
     d60:	89 2b       	or	r24, r25
     d62:	8b b9       	out	0x0b, r24	; 11
		lcd_write4bits(value);
	}
}

static  void lcd_pulseEnable(void) {
	PORTB |= 1;
     d64:	28 9a       	sbi	0x05, 0	; 5
     d66:	85 e0       	ldi	r24, 0x05	; 5
     d68:	8a 95       	dec	r24
     d6a:	f1 f7       	brne	.-4      	; 0xd68 <lcd_write+0x74>
     d6c:	00 00       	nop
	_delay_us(1);
	PORTB &= ~(1);
     d6e:	28 98       	cbi	0x05, 0	; 5
     d70:	95 e0       	ldi	r25, 0x05	; 5
     d72:	9a 95       	dec	r25
     d74:	f1 f7       	brne	.-4      	; 0xd72 <lcd_write+0x7e>
     d76:	00 00       	nop
	_delay_us(1);    // enable pulse must be >450ns
	PORTB |= 1;
     d78:	28 9a       	sbi	0x05, 0	; 5
     d7a:	85 ed       	ldi	r24, 0xD5	; 213
     d7c:	8a 95       	dec	r24
     d7e:	f1 f7       	brne	.-4      	; 0xd7c <lcd_write+0x88>
     d80:	00 00       	nop
}

size_t lcd_write(uint8_t value) {
	lcd_send(value, 1);
	return 1; // assume sucess
}
     d82:	81 e0       	ldi	r24, 0x01	; 1
     d84:	90 e0       	ldi	r25, 0x00	; 0
     d86:	08 95       	ret
	_delay_us(1);    // enable pulse must be >450ns
	PORTB |= 1;
	_delay_us(40);   // commands need > 37us to settle
}
uint8_t flip(uint8_t val){
	uint8_t ret = (val&1);
     d88:	98 2f       	mov	r25, r24
     d8a:	91 70       	andi	r25, 0x01	; 1
	for(uint8_t i = 0; i < 7; i++) {
		val >>= 1;
     d8c:	86 95       	lsr	r24
		ret <<= 1;
		ret  |= (val&1);
     d8e:	99 0f       	add	r25, r25
     d90:	28 2f       	mov	r18, r24
     d92:	21 70       	andi	r18, 0x01	; 1
     d94:	92 2b       	or	r25, r18
	_delay_us(40);   // commands need > 37us to settle
}
uint8_t flip(uint8_t val){
	uint8_t ret = (val&1);
	for(uint8_t i = 0; i < 7; i++) {
		val >>= 1;
     d96:	86 95       	lsr	r24
		ret <<= 1;
		ret  |= (val&1);
     d98:	99 0f       	add	r25, r25
     d9a:	28 2f       	mov	r18, r24
     d9c:	21 70       	andi	r18, 0x01	; 1
     d9e:	92 2b       	or	r25, r18
	_delay_us(40);   // commands need > 37us to settle
}
uint8_t flip(uint8_t val){
	uint8_t ret = (val&1);
	for(uint8_t i = 0; i < 7; i++) {
		val >>= 1;
     da0:	86 95       	lsr	r24
		ret <<= 1;
		ret  |= (val&1);
     da2:	99 0f       	add	r25, r25
     da4:	28 2f       	mov	r18, r24
     da6:	21 70       	andi	r18, 0x01	; 1
     da8:	92 2b       	or	r25, r18
	_delay_us(40);   // commands need > 37us to settle
}
uint8_t flip(uint8_t val){
	uint8_t ret = (val&1);
	for(uint8_t i = 0; i < 7; i++) {
		val >>= 1;
     daa:	86 95       	lsr	r24
		ret <<= 1;
		ret  |= (val&1);
     dac:	99 0f       	add	r25, r25
     dae:	28 2f       	mov	r18, r24
     db0:	21 70       	andi	r18, 0x01	; 1
     db2:	92 2b       	or	r25, r18
	_delay_us(40);   // commands need > 37us to settle
}
uint8_t flip(uint8_t val){
	uint8_t ret = (val&1);
	for(uint8_t i = 0; i < 7; i++) {
		val >>= 1;
     db4:	86 95       	lsr	r24
		ret <<= 1;
		ret  |= (val&1);
     db6:	99 0f       	add	r25, r25
     db8:	28 2f       	mov	r18, r24
     dba:	21 70       	andi	r18, 0x01	; 1
     dbc:	92 2b       	or	r25, r18
	_delay_us(40);   // commands need > 37us to settle
}
uint8_t flip(uint8_t val){
	uint8_t ret = (val&1);
	for(uint8_t i = 0; i < 7; i++) {
		val >>= 1;
     dbe:	86 95       	lsr	r24
		ret <<= 1;
		ret  |= (val&1);
     dc0:	28 2f       	mov	r18, r24
     dc2:	21 70       	andi	r18, 0x01	; 1
     dc4:	99 0f       	add	r25, r25
     dc6:	92 2b       	or	r25, r18
     dc8:	86 95       	lsr	r24
     dca:	c9 cf       	rjmp	.-110    	; 0xd5e <lcd_write+0x6a>

00000dcc <lcd_print>:
	memcpy(console,console+1,13);
}
void cls(){
	memset(console,0,15);
}
uint8_t lcd_print(char str[]){
     dcc:	cf 93       	push	r28
     dce:	df 93       	push	r29
     dd0:	ec 01       	movw	r28, r24
#include "common.h"
#include "lcd.h"
void push(char *ptr){
	memmove(console+1,console,13);
     dd2:	4d e0       	ldi	r20, 0x0D	; 13
     dd4:	50 e0       	ldi	r21, 0x00	; 0
     dd6:	6e e1       	ldi	r22, 0x1E	; 30
     dd8:	72 e0       	ldi	r23, 0x02	; 2
     dda:	80 e2       	ldi	r24, 0x20	; 32
     ddc:	92 e0       	ldi	r25, 0x02	; 2
     dde:	0e 94 09 09 	call	0x1212	; 0x1212 <memmove>
	console[0] = ptr;
     de2:	d0 93 1f 02 	sts	0x021F, r29	; 0x80021f <console+0x1>
     de6:	c0 93 1e 02 	sts	0x021E, r28	; 0x80021e <console>
void cls(){
	memset(console,0,15);
}
uint8_t lcd_print(char str[]){
	push(str);
	for(uint16_t i = 0; str[i]; i++) {
     dea:	98 81       	ld	r25, Y
     dec:	99 23       	and	r25, r25
     dee:	31 f1       	breq	.+76     	; 0xe3c <lcd_print+0x70>
     df0:	21 96       	adiw	r28, 0x01	; 1
     df2:	05 c0       	rjmp	.+10     	; 0xdfe <lcd_print+0x32>
		if (str[i] == '\n')
			push(str + i + 1);
		if(str[i] == '\r')
     df4:	9d 30       	cpi	r25, 0x0D	; 13
     df6:	b1 f0       	breq	.+44     	; 0xe24 <lcd_print+0x58>
void cls(){
	memset(console,0,15);
}
uint8_t lcd_print(char str[]){
	push(str);
	for(uint16_t i = 0; str[i]; i++) {
     df8:	99 91       	ld	r25, Y+
     dfa:	99 23       	and	r25, r25
     dfc:	f9 f0       	breq	.+62     	; 0xe3c <lcd_print+0x70>
		if (str[i] == '\n')
     dfe:	9a 30       	cpi	r25, 0x0A	; 10
     e00:	c9 f7       	brne	.-14     	; 0xdf4 <lcd_print+0x28>
#include "common.h"
#include "lcd.h"
void push(char *ptr){
	memmove(console+1,console,13);
     e02:	4d e0       	ldi	r20, 0x0D	; 13
     e04:	50 e0       	ldi	r21, 0x00	; 0
     e06:	6e e1       	ldi	r22, 0x1E	; 30
     e08:	72 e0       	ldi	r23, 0x02	; 2
     e0a:	80 e2       	ldi	r24, 0x20	; 32
     e0c:	92 e0       	ldi	r25, 0x02	; 2
     e0e:	0e 94 09 09 	call	0x1212	; 0x1212 <memmove>
	console[0] = ptr;
     e12:	d0 93 1f 02 	sts	0x021F, r29	; 0x80021f <console+0x1>
     e16:	c0 93 1e 02 	sts	0x021E, r28	; 0x80021e <console>
     e1a:	fe 01       	movw	r30, r28
     e1c:	31 97       	sbiw	r30, 0x01	; 1
     e1e:	90 81       	ld	r25, Z
uint8_t lcd_print(char str[]){
	push(str);
	for(uint16_t i = 0; str[i]; i++) {
		if (str[i] == '\n')
			push(str + i + 1);
		if(str[i] == '\r')
     e20:	9d 30       	cpi	r25, 0x0D	; 13
     e22:	51 f7       	brne	.-44     	; 0xdf8 <lcd_print+0x2c>
void push(char *ptr){
	memmove(console+1,console,13);
	console[0] = ptr;
}
void pop(){
	memcpy(console,console+1,13);
     e24:	8d e0       	ldi	r24, 0x0D	; 13
     e26:	e0 e2       	ldi	r30, 0x20	; 32
     e28:	f2 e0       	ldi	r31, 0x02	; 2
     e2a:	ae e1       	ldi	r26, 0x1E	; 30
     e2c:	b2 e0       	ldi	r27, 0x02	; 2
     e2e:	01 90       	ld	r0, Z+
     e30:	0d 92       	st	X+, r0
     e32:	8a 95       	dec	r24
     e34:	e1 f7       	brne	.-8      	; 0xe2e <lcd_print+0x62>
void cls(){
	memset(console,0,15);
}
uint8_t lcd_print(char str[]){
	push(str);
	for(uint16_t i = 0; str[i]; i++) {
     e36:	99 91       	ld	r25, Y+
     e38:	91 11       	cpse	r25, r1
     e3a:	e1 cf       	rjmp	.-62     	; 0xdfe <lcd_print+0x32>
			push(str + i + 1);
		if(str[i] == '\r')
			pop();
 	}
	 return 0;
}
     e3c:	80 e0       	ldi	r24, 0x00	; 0
     e3e:	df 91       	pop	r29
     e40:	cf 91       	pop	r28
     e42:	08 95       	ret

00000e44 <lcd_updateScreen>:
void lcd_updateScreen(uint8_t line){ // if u print to many char it duckes up
     e44:	ef 92       	push	r14
     e46:	ff 92       	push	r15
     e48:	0f 93       	push	r16
     e4a:	1f 93       	push	r17
     e4c:	cf 93       	push	r28
     e4e:	df 93       	push	r29
     e50:	e8 2e       	mov	r14, r24
     e52:	f1 2c       	mov	r15, r1
     e54:	c7 01       	movw	r24, r14
     e56:	88 0f       	add	r24, r24
     e58:	99 1f       	adc	r25, r25
     e5a:	9c 01       	movw	r18, r24
     e5c:	2e 5d       	subi	r18, 0xDE	; 222
     e5e:	3d 4f       	sbci	r19, 0xFD	; 253
     e60:	79 01       	movw	r14, r18
     e62:	d2 e0       	ldi	r29, 0x02	; 2
	
	for(int8_t l = 1; l >= 0  ;l--){
		char * curline = console[l+line];
     e64:	f7 01       	movw	r30, r14
     e66:	12 91       	ld	r17, -Z
     e68:	02 91       	ld	r16, -Z
     e6a:	7f 01       	movw	r14, r30
		uint8_t i = 0;
		if(curline){
     e6c:	c0 e0       	ldi	r28, 0x00	; 0
     e6e:	01 15       	cp	r16, r1
     e70:	11 05       	cpc	r17, r1
     e72:	41 f4       	brne	.+16     	; 0xe84 <lcd_updateScreen+0x40>
     e74:	0c c0       	rjmp	.+24     	; 0xe8e <lcd_updateScreen+0x4a>
			for(; i < 0x28 && curline[i] && curline[i] != '\n'; i++) {
     e76:	8a 30       	cpi	r24, 0x0A	; 10
     e78:	51 f0       	breq	.+20     	; 0xe8e <lcd_updateScreen+0x4a>
				//if(i > _row_offsets[2])lcd_autoscroll();
				lcd_write(curline[i]);
     e7a:	0e 94 7a 06 	call	0xcf4	; 0xcf4 <lcd_write>
	
	for(int8_t l = 1; l >= 0  ;l--){
		char * curline = console[l+line];
		uint8_t i = 0;
		if(curline){
			for(; i < 0x28 && curline[i] && curline[i] != '\n'; i++) {
     e7e:	cf 5f       	subi	r28, 0xFF	; 255
     e80:	c8 32       	cpi	r28, 0x28	; 40
     e82:	59 f0       	breq	.+22     	; 0xe9a <lcd_updateScreen+0x56>
     e84:	f8 01       	movw	r30, r16
     e86:	81 91       	ld	r24, Z+
     e88:	8f 01       	movw	r16, r30
     e8a:	81 11       	cpse	r24, r1
     e8c:	f4 cf       	rjmp	.-24     	; 0xe76 <lcd_updateScreen+0x32>
				//if(i > _row_offsets[2])lcd_autoscroll();
				lcd_write(curline[i]);
			}
		}
		for(; i < 0x28; i++) 
			lcd_write(' ');
     e8e:	80 e2       	ldi	r24, 0x20	; 32
     e90:	0e 94 7a 06 	call	0xcf4	; 0xcf4 <lcd_write>
			for(; i < 0x28 && curline[i] && curline[i] != '\n'; i++) {
				//if(i > _row_offsets[2])lcd_autoscroll();
				lcd_write(curline[i]);
			}
		}
		for(; i < 0x28; i++) 
     e94:	cf 5f       	subi	r28, 0xFF	; 255
     e96:	c8 32       	cpi	r28, 0x28	; 40
     e98:	d1 f7       	brne	.-12     	; 0xe8e <lcd_updateScreen+0x4a>
     e9a:	d1 50       	subi	r29, 0x01	; 1
 	}
	 return 0;
}
void lcd_updateScreen(uint8_t line){ // if u print to many char it duckes up
	
	for(int8_t l = 1; l >= 0  ;l--){
     e9c:	19 f7       	brne	.-58     	; 0xe64 <lcd_updateScreen+0x20>
		}
		for(; i < 0x28; i++) 
			lcd_write(' ');
	}

}
     e9e:	df 91       	pop	r29
     ea0:	cf 91       	pop	r28
     ea2:	1f 91       	pop	r17
     ea4:	0f 91       	pop	r16
     ea6:	ff 90       	pop	r15
     ea8:	ef 90       	pop	r14
     eaa:	08 95       	ret

00000eac <screen>:
#include "common.h"
#include "lcd.h"

void exit_code(int8_t code){
	char dis[20];
	sprintf(dis,"%s \nExit code: %d",(code)?"Program failed...":"Success!!!",code);
     eac:	af 92       	push	r10
     eae:	bf 92       	push	r11
     eb0:	cf 92       	push	r12
     eb2:	df 92       	push	r13
     eb4:	ef 92       	push	r14
     eb6:	ff 92       	push	r15
     eb8:	0f 93       	push	r16
     eba:	1f 93       	push	r17
     ebc:	cf 93       	push	r28
     ebe:	df 93       	push	r29
     ec0:	cd b7       	in	r28, 0x3d	; 61
     ec2:	de b7       	in	r29, 0x3e	; 62
     ec4:	27 97       	sbiw	r28, 0x07	; 7
     ec6:	0f b6       	in	r0, 0x3f	; 63
     ec8:	f8 94       	cli
     eca:	de bf       	out	0x3e, r29	; 62
     ecc:	0f be       	out	0x3f, r0	; 63
     ece:	cd bf       	out	0x3d, r28	; 61
     ed0:	29 83       	std	Y+1, r18	; 0x01
     ed2:	3a 83       	std	Y+2, r19	; 0x02
     ed4:	4b 83       	std	Y+3, r20	; 0x03
     ed6:	5c 83       	std	Y+4, r21	; 0x04
     ed8:	6d 83       	std	Y+5, r22	; 0x05
     eda:	7e 83       	std	Y+6, r23	; 0x06
     edc:	8f 83       	std	Y+7, r24	; 0x07
     ede:	ca 80       	ldd	r12, Y+2	; 0x02
     ee0:	db 80       	ldd	r13, Y+3	; 0x03
     ee2:	0c 81       	ldd	r16, Y+4	; 0x04
     ee4:	1d 81       	ldd	r17, Y+5	; 0x05
     ee6:	ee 80       	ldd	r14, Y+6	; 0x06
     ee8:	ff 80       	ldd	r15, Y+7	; 0x07
     eea:	21 11       	cpse	r18, r1
     eec:	64 c0       	rjmp	.+200    	; 0xfb6 <screen+0x10a>
     eee:	c1 14       	cp	r12, r1
     ef0:	d1 04       	cpc	r13, r1
     ef2:	09 f4       	brne	.+2      	; 0xef6 <screen+0x4a>
     ef4:	41 c0       	rjmp	.+130    	; 0xf78 <screen+0xcc>
     ef6:	0e 94 34 01 	call	0x268	; 0x268 <get_temp>
     efa:	96 95       	lsr	r25
     efc:	87 95       	ror	r24
     efe:	96 95       	lsr	r25
     f00:	87 95       	ror	r24
     f02:	e1 14       	cp	r14, r1
     f04:	f1 04       	cpc	r15, r1
     f06:	09 f0       	breq	.+2      	; 0xf0a <screen+0x5e>
     f08:	76 c0       	rjmp	.+236    	; 0xff6 <screen+0x14a>
     f0a:	2a eb       	ldi	r18, 0xBA	; 186
     f0c:	31 e0       	ldi	r19, 0x01	; 1
     f0e:	df 92       	push	r13
     f10:	cf 92       	push	r12
     f12:	9f 93       	push	r25
     f14:	8f 93       	push	r24
     f16:	ff 92       	push	r15
     f18:	ef 92       	push	r14
     f1a:	3f 93       	push	r19
     f1c:	2f 93       	push	r18
     f1e:	8c eb       	ldi	r24, 0xBC	; 188
     f20:	91 e0       	ldi	r25, 0x01	; 1
     f22:	9f 93       	push	r25
     f24:	8f 93       	push	r24
     f26:	81 e0       	ldi	r24, 0x01	; 1
     f28:	92 e0       	ldi	r25, 0x02	; 2
     f2a:	9f 93       	push	r25
     f2c:	8f 93       	push	r24
     f2e:	0e 94 1b 09 	call	0x1236	; 0x1236 <sprintf>
     f32:	0f b6       	in	r0, 0x3f	; 63
     f34:	f8 94       	cli
     f36:	de bf       	out	0x3e, r29	; 62
     f38:	0f be       	out	0x3f, r0	; 63
     f3a:	cd bf       	out	0x3d, r28	; 61
     f3c:	81 e0       	ldi	r24, 0x01	; 1
     f3e:	92 e0       	ldi	r25, 0x02	; 2
     f40:	0e 94 e6 06 	call	0xdcc	; 0xdcc <lcd_print>
     f44:	80 e0       	ldi	r24, 0x00	; 0
     f46:	0e 94 22 07 	call	0xe44	; 0xe44 <lcd_updateScreen>
     f4a:	8f e3       	ldi	r24, 0x3F	; 63
     f4c:	9c e9       	ldi	r25, 0x9C	; 156
     f4e:	01 97       	sbiw	r24, 0x01	; 1
     f50:	f1 f7       	brne	.-4      	; 0xf4e <screen+0xa2>
     f52:	00 c0       	rjmp	.+0      	; 0xf54 <screen+0xa8>
     f54:	00 00       	nop
     f56:	27 96       	adiw	r28, 0x07	; 7
     f58:	0f b6       	in	r0, 0x3f	; 63
     f5a:	f8 94       	cli
     f5c:	de bf       	out	0x3e, r29	; 62
     f5e:	0f be       	out	0x3f, r0	; 63
     f60:	cd bf       	out	0x3d, r28	; 61
     f62:	df 91       	pop	r29
     f64:	cf 91       	pop	r28
     f66:	1f 91       	pop	r17
     f68:	0f 91       	pop	r16
     f6a:	ff 90       	pop	r15
     f6c:	ef 90       	pop	r14
     f6e:	df 90       	pop	r13
     f70:	cf 90       	pop	r12
     f72:	bf 90       	pop	r11
     f74:	af 90       	pop	r10
     f76:	08 95       	ret
     f78:	0e 94 34 01 	call	0x268	; 0x268 <get_temp>
     f7c:	6c 01       	movw	r12, r24
     f7e:	d6 94       	lsr	r13
     f80:	c7 94       	ror	r12
     f82:	d6 94       	lsr	r13
     f84:	c7 94       	ror	r12
     f86:	0e 94 3b 08 	call	0x1076	; 0x1076 <Time>
     f8a:	28 ee       	ldi	r18, 0xE8	; 232
     f8c:	33 e0       	ldi	r19, 0x03	; 3
     f8e:	40 e0       	ldi	r20, 0x00	; 0
     f90:	50 e0       	ldi	r21, 0x00	; 0
     f92:	0e 94 9a 08 	call	0x1134	; 0x1134 <__udivmodsi4>
     f96:	02 1b       	sub	r16, r18
     f98:	13 0b       	sbc	r17, r19
     f9a:	e1 14       	cp	r14, r1
     f9c:	f1 04       	cpc	r15, r1
     f9e:	29 f5       	brne	.+74     	; 0xfea <screen+0x13e>
     fa0:	8a eb       	ldi	r24, 0xBA	; 186
     fa2:	91 e0       	ldi	r25, 0x01	; 1
     fa4:	ff 92       	push	r15
     fa6:	ef 92       	push	r14
     fa8:	df 92       	push	r13
     faa:	cf 92       	push	r12
     fac:	1f 93       	push	r17
     fae:	0f 93       	push	r16
     fb0:	9f 93       	push	r25
     fb2:	8f 93       	push	r24
     fb4:	b4 cf       	rjmp	.-152    	; 0xf1e <screen+0x72>
     fb6:	0e 94 34 01 	call	0x268	; 0x268 <get_temp>
     fba:	5c 01       	movw	r10, r24
     fbc:	b6 94       	lsr	r11
     fbe:	a7 94       	ror	r10
     fc0:	b6 94       	lsr	r11
     fc2:	a7 94       	ror	r10
     fc4:	0e 94 3b 08 	call	0x1076	; 0x1076 <Time>
     fc8:	28 ee       	ldi	r18, 0xE8	; 232
     fca:	33 e0       	ldi	r19, 0x03	; 3
     fcc:	40 e0       	ldi	r20, 0x00	; 0
     fce:	50 e0       	ldi	r21, 0x00	; 0
     fd0:	0e 94 9a 08 	call	0x1134	; 0x1134 <__udivmodsi4>
     fd4:	02 1b       	sub	r16, r18
     fd6:	13 0b       	sbc	r17, r19
     fd8:	ef 28       	or	r14, r15
     fda:	51 f4       	brne	.+20     	; 0xff0 <screen+0x144>
     fdc:	8a eb       	ldi	r24, 0xBA	; 186
     fde:	91 e0       	ldi	r25, 0x01	; 1
     fe0:	df 92       	push	r13
     fe2:	cf 92       	push	r12
     fe4:	bf 92       	push	r11
     fe6:	af 92       	push	r10
     fe8:	e1 cf       	rjmp	.-62     	; 0xfac <screen+0x100>
     fea:	88 eb       	ldi	r24, 0xB8	; 184
     fec:	91 e0       	ldi	r25, 0x01	; 1
     fee:	da cf       	rjmp	.-76     	; 0xfa4 <screen+0xf8>
     ff0:	88 eb       	ldi	r24, 0xB8	; 184
     ff2:	91 e0       	ldi	r25, 0x01	; 1
     ff4:	f5 cf       	rjmp	.-22     	; 0xfe0 <screen+0x134>
     ff6:	28 eb       	ldi	r18, 0xB8	; 184
     ff8:	31 e0       	ldi	r19, 0x01	; 1
     ffa:	89 cf       	rjmp	.-238    	; 0xf0e <screen+0x62>

00000ffc <main>:
		lcd_print(dis);
		lcd_updateScreen(0);
		_delay_ms(10);
}

int main(void) {
     ffc:	cf 93       	push	r28
     ffe:	df 93       	push	r29
    1000:	cd b7       	in	r28, 0x3d	; 61
    1002:	de b7       	in	r29, 0x3e	; 62
    1004:	aa 97       	sbiw	r28, 0x2a	; 42
    1006:	0f b6       	in	r0, 0x3f	; 63
    1008:	f8 94       	cli
    100a:	de bf       	out	0x3e, r29	; 62
    100c:	0f be       	out	0x3f, r0	; 63
    100e:	cd bf       	out	0x3d, r28	; 61
	lcd_init(16,2);
    1010:	62 e0       	ldi	r22, 0x02	; 2
    1012:	80 e1       	ldi	r24, 0x10	; 16
    1014:	0e 94 b8 05 	call	0xb70	; 0xb70 <lcd_init>
	InitADC();
    1018:	0e 94 79 00 	call	0xf2	; 0xf2 <InitADC>
	initTime();
    101c:	0e 94 2a 08 	call	0x1054	; 0x1054 <initTime>
	DDRC |= 4; // realy pin
    1020:	3a 9a       	sbi	0x07, 2	; 7
	DDRC |= (1<<5); // thermo cpule
    1022:	3d 9a       	sbi	0x07, 5	; 7
	DDRE |= (1<<2);
    1024:	6a 9a       	sbi	0x0d, 2	; 13

	PORTB |= 1<<2; //init button
    1026:	2a 9a       	sbi	0x05, 2	; 5
	PORTB |= 3<<3; //init button
    1028:	85 b1       	in	r24, 0x05	; 5
    102a:	88 61       	ori	r24, 0x18	; 24
    102c:	85 b9       	out	0x05, r24	; 5
    102e:	8e 01       	movw	r16, r28
    1030:	0f 5f       	subi	r16, 0xFF	; 255
    1032:	1f 4f       	sbci	r17, 0xFF	; 255

	while(1){
			struct tempC a[6] = {0};
    1034:	8a e2       	ldi	r24, 0x2A	; 42
    1036:	f8 2e       	mov	r15, r24
    1038:	f8 01       	movw	r30, r16
    103a:	8f 2d       	mov	r24, r15
    103c:	11 92       	st	Z+, r1
    103e:	8a 95       	dec	r24
    1040:	e9 f7       	brne	.-6      	; 0x103c <main+0x40>

		Options(a);
    1042:	c8 01       	movw	r24, r16
    1044:	0e 94 5d 02 	call	0x4ba	; 0x4ba <Options>
		update(a,&screen);
    1048:	66 e5       	ldi	r22, 0x56	; 86
    104a:	77 e0       	ldi	r23, 0x07	; 7
    104c:	c8 01       	movw	r24, r16
    104e:	0e 94 3b 01 	call	0x276	; 0x276 <update>
    1052:	f2 cf       	rjmp	.-28     	; 0x1038 <main+0x3c>

00001054 <initTime>:
#include "timer.h"
#define milli (uint16_t)(F_CPU/128000)
static volatile uint32_t milliSeconds = 0;
void initTime(){
	sei();
    1054:	78 94       	sei
	TCCR1A = 3;
    1056:	83 e0       	ldi	r24, 0x03	; 3
    1058:	80 93 80 00 	sts	0x0080, r24	; 0x800080 <__DATA_REGION_ORIGIN__+0x20>
	TCCR1B =  16| 3; // mode to count to ocrnA then restet // set no pre scalar 16MHZ
    105c:	83 e1       	ldi	r24, 0x13	; 19
    105e:	80 93 81 00 	sts	0x0081, r24	; 0x800081 <__DATA_REGION_ORIGIN__+0x21>
	OCR1A = milli; // count to  then reset this  is one milisecond
    1062:	8d e7       	ldi	r24, 0x7D	; 125
    1064:	90 e0       	ldi	r25, 0x00	; 0
    1066:	90 93 89 00 	sts	0x0089, r25	; 0x800089 <__DATA_REGION_ORIGIN__+0x29>
    106a:	80 93 88 00 	sts	0x0088, r24	; 0x800088 <__DATA_REGION_ORIGIN__+0x28>
	TIMSK1 = 2; // compare interupt
    106e:	82 e0       	ldi	r24, 0x02	; 2
    1070:	80 93 6f 00 	sts	0x006F, r24	; 0x80006f <__DATA_REGION_ORIGIN__+0xf>
    1074:	08 95       	ret

00001076 <Time>:
   
}
//retuns milliseconds
uint32_t Time(){
	return milliSeconds;
    1076:	60 91 15 02 	lds	r22, 0x0215	; 0x800215 <milliSeconds>
    107a:	70 91 16 02 	lds	r23, 0x0216	; 0x800216 <milliSeconds+0x1>
    107e:	80 91 17 02 	lds	r24, 0x0217	; 0x800217 <milliSeconds+0x2>
    1082:	90 91 18 02 	lds	r25, 0x0218	; 0x800218 <milliSeconds+0x3>
}
    1086:	08 95       	ret

00001088 <timerReset>:

void timerReset(){
	TCNT1 = 0;
    1088:	10 92 85 00 	sts	0x0085, r1	; 0x800085 <__DATA_REGION_ORIGIN__+0x25>
    108c:	10 92 84 00 	sts	0x0084, r1	; 0x800084 <__DATA_REGION_ORIGIN__+0x24>
	milliSeconds = 0;
    1090:	10 92 15 02 	sts	0x0215, r1	; 0x800215 <milliSeconds>
    1094:	10 92 16 02 	sts	0x0216, r1	; 0x800216 <milliSeconds+0x1>
    1098:	10 92 17 02 	sts	0x0217, r1	; 0x800217 <milliSeconds+0x2>
    109c:	10 92 18 02 	sts	0x0218, r1	; 0x800218 <milliSeconds+0x3>
    10a0:	08 95       	ret

000010a2 <__vector_11>:
}
ISR(TIMER1_COMPA_vect){
    10a2:	1f 92       	push	r1
    10a4:	0f 92       	push	r0
    10a6:	0f b6       	in	r0, 0x3f	; 63
    10a8:	0f 92       	push	r0
    10aa:	11 24       	eor	r1, r1
    10ac:	8f 93       	push	r24
    10ae:	9f 93       	push	r25
    10b0:	af 93       	push	r26
    10b2:	bf 93       	push	r27
	milliSeconds++; // increnment the seconds
    10b4:	80 91 15 02 	lds	r24, 0x0215	; 0x800215 <milliSeconds>
    10b8:	90 91 16 02 	lds	r25, 0x0216	; 0x800216 <milliSeconds+0x1>
    10bc:	a0 91 17 02 	lds	r26, 0x0217	; 0x800217 <milliSeconds+0x2>
    10c0:	b0 91 18 02 	lds	r27, 0x0218	; 0x800218 <milliSeconds+0x3>
    10c4:	01 96       	adiw	r24, 0x01	; 1
    10c6:	a1 1d       	adc	r26, r1
    10c8:	b1 1d       	adc	r27, r1
    10ca:	80 93 15 02 	sts	0x0215, r24	; 0x800215 <milliSeconds>
    10ce:	90 93 16 02 	sts	0x0216, r25	; 0x800216 <milliSeconds+0x1>
    10d2:	a0 93 17 02 	sts	0x0217, r26	; 0x800217 <milliSeconds+0x2>
    10d6:	b0 93 18 02 	sts	0x0218, r27	; 0x800218 <milliSeconds+0x3>
    10da:	bf 91       	pop	r27
    10dc:	af 91       	pop	r26
    10de:	9f 91       	pop	r25
    10e0:	8f 91       	pop	r24
    10e2:	0f 90       	pop	r0
    10e4:	0f be       	out	0x3f, r0	; 63
    10e6:	0f 90       	pop	r0
    10e8:	1f 90       	pop	r1
    10ea:	18 95       	reti

000010ec <__mulsi3>:
    10ec:	db 01       	movw	r26, r22
    10ee:	8f 93       	push	r24
    10f0:	9f 93       	push	r25
    10f2:	0e 94 ea 08 	call	0x11d4	; 0x11d4 <__muluhisi3>
    10f6:	bf 91       	pop	r27
    10f8:	af 91       	pop	r26
    10fa:	a2 9f       	mul	r26, r18
    10fc:	80 0d       	add	r24, r0
    10fe:	91 1d       	adc	r25, r1
    1100:	a3 9f       	mul	r26, r19
    1102:	90 0d       	add	r25, r0
    1104:	b2 9f       	mul	r27, r18
    1106:	90 0d       	add	r25, r0
    1108:	11 24       	eor	r1, r1
    110a:	08 95       	ret

0000110c <__divmodhi4>:
    110c:	97 fb       	bst	r25, 7
    110e:	07 2e       	mov	r0, r23
    1110:	16 f4       	brtc	.+4      	; 0x1116 <__divmodhi4+0xa>
    1112:	00 94       	com	r0
    1114:	07 d0       	rcall	.+14     	; 0x1124 <__divmodhi4_neg1>
    1116:	77 fd       	sbrc	r23, 7
    1118:	09 d0       	rcall	.+18     	; 0x112c <__divmodhi4_neg2>
    111a:	0e 94 f5 08 	call	0x11ea	; 0x11ea <__udivmodhi4>
    111e:	07 fc       	sbrc	r0, 7
    1120:	05 d0       	rcall	.+10     	; 0x112c <__divmodhi4_neg2>
    1122:	3e f4       	brtc	.+14     	; 0x1132 <__divmodhi4_exit>

00001124 <__divmodhi4_neg1>:
    1124:	90 95       	com	r25
    1126:	81 95       	neg	r24
    1128:	9f 4f       	sbci	r25, 0xFF	; 255
    112a:	08 95       	ret

0000112c <__divmodhi4_neg2>:
    112c:	70 95       	com	r23
    112e:	61 95       	neg	r22
    1130:	7f 4f       	sbci	r23, 0xFF	; 255

00001132 <__divmodhi4_exit>:
    1132:	08 95       	ret

00001134 <__udivmodsi4>:
    1134:	a1 e2       	ldi	r26, 0x21	; 33
    1136:	1a 2e       	mov	r1, r26
    1138:	aa 1b       	sub	r26, r26
    113a:	bb 1b       	sub	r27, r27
    113c:	fd 01       	movw	r30, r26
    113e:	0d c0       	rjmp	.+26     	; 0x115a <__udivmodsi4_ep>

00001140 <__udivmodsi4_loop>:
    1140:	aa 1f       	adc	r26, r26
    1142:	bb 1f       	adc	r27, r27
    1144:	ee 1f       	adc	r30, r30
    1146:	ff 1f       	adc	r31, r31
    1148:	a2 17       	cp	r26, r18
    114a:	b3 07       	cpc	r27, r19
    114c:	e4 07       	cpc	r30, r20
    114e:	f5 07       	cpc	r31, r21
    1150:	20 f0       	brcs	.+8      	; 0x115a <__udivmodsi4_ep>
    1152:	a2 1b       	sub	r26, r18
    1154:	b3 0b       	sbc	r27, r19
    1156:	e4 0b       	sbc	r30, r20
    1158:	f5 0b       	sbc	r31, r21

0000115a <__udivmodsi4_ep>:
    115a:	66 1f       	adc	r22, r22
    115c:	77 1f       	adc	r23, r23
    115e:	88 1f       	adc	r24, r24
    1160:	99 1f       	adc	r25, r25
    1162:	1a 94       	dec	r1
    1164:	69 f7       	brne	.-38     	; 0x1140 <__udivmodsi4_loop>
    1166:	60 95       	com	r22
    1168:	70 95       	com	r23
    116a:	80 95       	com	r24
    116c:	90 95       	com	r25
    116e:	9b 01       	movw	r18, r22
    1170:	ac 01       	movw	r20, r24
    1172:	bd 01       	movw	r22, r26
    1174:	cf 01       	movw	r24, r30
    1176:	08 95       	ret

00001178 <__divmodsi4>:
    1178:	05 2e       	mov	r0, r21
    117a:	97 fb       	bst	r25, 7
    117c:	1e f4       	brtc	.+6      	; 0x1184 <__divmodsi4+0xc>
    117e:	00 94       	com	r0
    1180:	0e 94 d3 08 	call	0x11a6	; 0x11a6 <__negsi2>
    1184:	57 fd       	sbrc	r21, 7
    1186:	07 d0       	rcall	.+14     	; 0x1196 <__divmodsi4_neg2>
    1188:	0e 94 9a 08 	call	0x1134	; 0x1134 <__udivmodsi4>
    118c:	07 fc       	sbrc	r0, 7
    118e:	03 d0       	rcall	.+6      	; 0x1196 <__divmodsi4_neg2>
    1190:	4e f4       	brtc	.+18     	; 0x11a4 <__divmodsi4_exit>
    1192:	0c 94 d3 08 	jmp	0x11a6	; 0x11a6 <__negsi2>

00001196 <__divmodsi4_neg2>:
    1196:	50 95       	com	r21
    1198:	40 95       	com	r20
    119a:	30 95       	com	r19
    119c:	21 95       	neg	r18
    119e:	3f 4f       	sbci	r19, 0xFF	; 255
    11a0:	4f 4f       	sbci	r20, 0xFF	; 255
    11a2:	5f 4f       	sbci	r21, 0xFF	; 255

000011a4 <__divmodsi4_exit>:
    11a4:	08 95       	ret

000011a6 <__negsi2>:
    11a6:	90 95       	com	r25
    11a8:	80 95       	com	r24
    11aa:	70 95       	com	r23
    11ac:	61 95       	neg	r22
    11ae:	7f 4f       	sbci	r23, 0xFF	; 255
    11b0:	8f 4f       	sbci	r24, 0xFF	; 255
    11b2:	9f 4f       	sbci	r25, 0xFF	; 255
    11b4:	08 95       	ret

000011b6 <__umulhisi3>:
    11b6:	a2 9f       	mul	r26, r18
    11b8:	b0 01       	movw	r22, r0
    11ba:	b3 9f       	mul	r27, r19
    11bc:	c0 01       	movw	r24, r0
    11be:	a3 9f       	mul	r26, r19
    11c0:	70 0d       	add	r23, r0
    11c2:	81 1d       	adc	r24, r1
    11c4:	11 24       	eor	r1, r1
    11c6:	91 1d       	adc	r25, r1
    11c8:	b2 9f       	mul	r27, r18
    11ca:	70 0d       	add	r23, r0
    11cc:	81 1d       	adc	r24, r1
    11ce:	11 24       	eor	r1, r1
    11d0:	91 1d       	adc	r25, r1
    11d2:	08 95       	ret

000011d4 <__muluhisi3>:
    11d4:	0e 94 db 08 	call	0x11b6	; 0x11b6 <__umulhisi3>
    11d8:	a5 9f       	mul	r26, r21
    11da:	90 0d       	add	r25, r0
    11dc:	b4 9f       	mul	r27, r20
    11de:	90 0d       	add	r25, r0
    11e0:	a4 9f       	mul	r26, r20
    11e2:	80 0d       	add	r24, r0
    11e4:	91 1d       	adc	r25, r1
    11e6:	11 24       	eor	r1, r1
    11e8:	08 95       	ret

000011ea <__udivmodhi4>:
    11ea:	aa 1b       	sub	r26, r26
    11ec:	bb 1b       	sub	r27, r27
    11ee:	51 e1       	ldi	r21, 0x11	; 17
    11f0:	07 c0       	rjmp	.+14     	; 0x1200 <__udivmodhi4_ep>

000011f2 <__udivmodhi4_loop>:
    11f2:	aa 1f       	adc	r26, r26
    11f4:	bb 1f       	adc	r27, r27
    11f6:	a6 17       	cp	r26, r22
    11f8:	b7 07       	cpc	r27, r23
    11fa:	10 f0       	brcs	.+4      	; 0x1200 <__udivmodhi4_ep>
    11fc:	a6 1b       	sub	r26, r22
    11fe:	b7 0b       	sbc	r27, r23

00001200 <__udivmodhi4_ep>:
    1200:	88 1f       	adc	r24, r24
    1202:	99 1f       	adc	r25, r25
    1204:	5a 95       	dec	r21
    1206:	a9 f7       	brne	.-22     	; 0x11f2 <__udivmodhi4_loop>
    1208:	80 95       	com	r24
    120a:	90 95       	com	r25
    120c:	bc 01       	movw	r22, r24
    120e:	cd 01       	movw	r24, r26
    1210:	08 95       	ret

00001212 <memmove>:
    1212:	68 17       	cp	r22, r24
    1214:	79 07       	cpc	r23, r25
    1216:	68 f4       	brcc	.+26     	; 0x1232 <memmove+0x20>
    1218:	fb 01       	movw	r30, r22
    121a:	dc 01       	movw	r26, r24
    121c:	e4 0f       	add	r30, r20
    121e:	f5 1f       	adc	r31, r21
    1220:	a4 0f       	add	r26, r20
    1222:	b5 1f       	adc	r27, r21
    1224:	02 c0       	rjmp	.+4      	; 0x122a <memmove+0x18>
    1226:	02 90       	ld	r0, -Z
    1228:	0e 92       	st	-X, r0
    122a:	41 50       	subi	r20, 0x01	; 1
    122c:	50 40       	sbci	r21, 0x00	; 0
    122e:	d8 f7       	brcc	.-10     	; 0x1226 <memmove+0x14>
    1230:	08 95       	ret
    1232:	0c 94 29 0b 	jmp	0x1652	; 0x1652 <memcpy>

00001236 <sprintf>:
    1236:	ae e0       	ldi	r26, 0x0E	; 14
    1238:	b0 e0       	ldi	r27, 0x00	; 0
    123a:	e1 e2       	ldi	r30, 0x21	; 33
    123c:	f9 e0       	ldi	r31, 0x09	; 9
    123e:	0c 94 e5 0b 	jmp	0x17ca	; 0x17ca <__prologue_saves__+0x1c>
    1242:	0d 89       	ldd	r16, Y+21	; 0x15
    1244:	1e 89       	ldd	r17, Y+22	; 0x16
    1246:	86 e0       	ldi	r24, 0x06	; 6
    1248:	8c 83       	std	Y+4, r24	; 0x04
    124a:	1a 83       	std	Y+2, r17	; 0x02
    124c:	09 83       	std	Y+1, r16	; 0x01
    124e:	8f ef       	ldi	r24, 0xFF	; 255
    1250:	9f e7       	ldi	r25, 0x7F	; 127
    1252:	9e 83       	std	Y+6, r25	; 0x06
    1254:	8d 83       	std	Y+5, r24	; 0x05
    1256:	ae 01       	movw	r20, r28
    1258:	47 5e       	subi	r20, 0xE7	; 231
    125a:	5f 4f       	sbci	r21, 0xFF	; 255
    125c:	6f 89       	ldd	r22, Y+23	; 0x17
    125e:	78 8d       	ldd	r23, Y+24	; 0x18
    1260:	ce 01       	movw	r24, r28
    1262:	01 96       	adiw	r24, 0x01	; 1
    1264:	0e 94 3d 09 	call	0x127a	; 0x127a <vfprintf>
    1268:	ef 81       	ldd	r30, Y+7	; 0x07
    126a:	f8 85       	ldd	r31, Y+8	; 0x08
    126c:	e0 0f       	add	r30, r16
    126e:	f1 1f       	adc	r31, r17
    1270:	10 82       	st	Z, r1
    1272:	2e 96       	adiw	r28, 0x0e	; 14
    1274:	e4 e0       	ldi	r30, 0x04	; 4
    1276:	0c 94 01 0c 	jmp	0x1802	; 0x1802 <__epilogue_restores__+0x1c>

0000127a <vfprintf>:
    127a:	ab e0       	ldi	r26, 0x0B	; 11
    127c:	b0 e0       	ldi	r27, 0x00	; 0
    127e:	e3 e4       	ldi	r30, 0x43	; 67
    1280:	f9 e0       	ldi	r31, 0x09	; 9
    1282:	0c 94 d7 0b 	jmp	0x17ae	; 0x17ae <__prologue_saves__>
    1286:	6c 01       	movw	r12, r24
    1288:	7b 01       	movw	r14, r22
    128a:	8a 01       	movw	r16, r20
    128c:	fc 01       	movw	r30, r24
    128e:	17 82       	std	Z+7, r1	; 0x07
    1290:	16 82       	std	Z+6, r1	; 0x06
    1292:	83 81       	ldd	r24, Z+3	; 0x03
    1294:	81 ff       	sbrs	r24, 1
    1296:	cc c1       	rjmp	.+920    	; 0x1630 <vfprintf+0x3b6>
    1298:	ce 01       	movw	r24, r28
    129a:	01 96       	adiw	r24, 0x01	; 1
    129c:	3c 01       	movw	r6, r24
    129e:	f6 01       	movw	r30, r12
    12a0:	93 81       	ldd	r25, Z+3	; 0x03
    12a2:	f7 01       	movw	r30, r14
    12a4:	93 fd       	sbrc	r25, 3
    12a6:	85 91       	lpm	r24, Z+
    12a8:	93 ff       	sbrs	r25, 3
    12aa:	81 91       	ld	r24, Z+
    12ac:	7f 01       	movw	r14, r30
    12ae:	88 23       	and	r24, r24
    12b0:	09 f4       	brne	.+2      	; 0x12b4 <vfprintf+0x3a>
    12b2:	ba c1       	rjmp	.+884    	; 0x1628 <vfprintf+0x3ae>
    12b4:	85 32       	cpi	r24, 0x25	; 37
    12b6:	39 f4       	brne	.+14     	; 0x12c6 <vfprintf+0x4c>
    12b8:	93 fd       	sbrc	r25, 3
    12ba:	85 91       	lpm	r24, Z+
    12bc:	93 ff       	sbrs	r25, 3
    12be:	81 91       	ld	r24, Z+
    12c0:	7f 01       	movw	r14, r30
    12c2:	85 32       	cpi	r24, 0x25	; 37
    12c4:	29 f4       	brne	.+10     	; 0x12d0 <vfprintf+0x56>
    12c6:	b6 01       	movw	r22, r12
    12c8:	90 e0       	ldi	r25, 0x00	; 0
    12ca:	0e 94 3d 0b 	call	0x167a	; 0x167a <fputc>
    12ce:	e7 cf       	rjmp	.-50     	; 0x129e <vfprintf+0x24>
    12d0:	91 2c       	mov	r9, r1
    12d2:	21 2c       	mov	r2, r1
    12d4:	31 2c       	mov	r3, r1
    12d6:	ff e1       	ldi	r31, 0x1F	; 31
    12d8:	f3 15       	cp	r31, r3
    12da:	d8 f0       	brcs	.+54     	; 0x1312 <vfprintf+0x98>
    12dc:	8b 32       	cpi	r24, 0x2B	; 43
    12de:	79 f0       	breq	.+30     	; 0x12fe <vfprintf+0x84>
    12e0:	38 f4       	brcc	.+14     	; 0x12f0 <vfprintf+0x76>
    12e2:	80 32       	cpi	r24, 0x20	; 32
    12e4:	79 f0       	breq	.+30     	; 0x1304 <vfprintf+0x8a>
    12e6:	83 32       	cpi	r24, 0x23	; 35
    12e8:	a1 f4       	brne	.+40     	; 0x1312 <vfprintf+0x98>
    12ea:	23 2d       	mov	r18, r3
    12ec:	20 61       	ori	r18, 0x10	; 16
    12ee:	1d c0       	rjmp	.+58     	; 0x132a <vfprintf+0xb0>
    12f0:	8d 32       	cpi	r24, 0x2D	; 45
    12f2:	61 f0       	breq	.+24     	; 0x130c <vfprintf+0x92>
    12f4:	80 33       	cpi	r24, 0x30	; 48
    12f6:	69 f4       	brne	.+26     	; 0x1312 <vfprintf+0x98>
    12f8:	23 2d       	mov	r18, r3
    12fa:	21 60       	ori	r18, 0x01	; 1
    12fc:	16 c0       	rjmp	.+44     	; 0x132a <vfprintf+0xb0>
    12fe:	83 2d       	mov	r24, r3
    1300:	82 60       	ori	r24, 0x02	; 2
    1302:	38 2e       	mov	r3, r24
    1304:	e3 2d       	mov	r30, r3
    1306:	e4 60       	ori	r30, 0x04	; 4
    1308:	3e 2e       	mov	r3, r30
    130a:	2a c0       	rjmp	.+84     	; 0x1360 <vfprintf+0xe6>
    130c:	f3 2d       	mov	r31, r3
    130e:	f8 60       	ori	r31, 0x08	; 8
    1310:	1d c0       	rjmp	.+58     	; 0x134c <vfprintf+0xd2>
    1312:	37 fc       	sbrc	r3, 7
    1314:	2d c0       	rjmp	.+90     	; 0x1370 <vfprintf+0xf6>
    1316:	20 ed       	ldi	r18, 0xD0	; 208
    1318:	28 0f       	add	r18, r24
    131a:	2a 30       	cpi	r18, 0x0A	; 10
    131c:	40 f0       	brcs	.+16     	; 0x132e <vfprintf+0xb4>
    131e:	8e 32       	cpi	r24, 0x2E	; 46
    1320:	b9 f4       	brne	.+46     	; 0x1350 <vfprintf+0xd6>
    1322:	36 fc       	sbrc	r3, 6
    1324:	81 c1       	rjmp	.+770    	; 0x1628 <vfprintf+0x3ae>
    1326:	23 2d       	mov	r18, r3
    1328:	20 64       	ori	r18, 0x40	; 64
    132a:	32 2e       	mov	r3, r18
    132c:	19 c0       	rjmp	.+50     	; 0x1360 <vfprintf+0xe6>
    132e:	36 fe       	sbrs	r3, 6
    1330:	06 c0       	rjmp	.+12     	; 0x133e <vfprintf+0xc4>
    1332:	8a e0       	ldi	r24, 0x0A	; 10
    1334:	98 9e       	mul	r9, r24
    1336:	20 0d       	add	r18, r0
    1338:	11 24       	eor	r1, r1
    133a:	92 2e       	mov	r9, r18
    133c:	11 c0       	rjmp	.+34     	; 0x1360 <vfprintf+0xe6>
    133e:	ea e0       	ldi	r30, 0x0A	; 10
    1340:	2e 9e       	mul	r2, r30
    1342:	20 0d       	add	r18, r0
    1344:	11 24       	eor	r1, r1
    1346:	22 2e       	mov	r2, r18
    1348:	f3 2d       	mov	r31, r3
    134a:	f0 62       	ori	r31, 0x20	; 32
    134c:	3f 2e       	mov	r3, r31
    134e:	08 c0       	rjmp	.+16     	; 0x1360 <vfprintf+0xe6>
    1350:	8c 36       	cpi	r24, 0x6C	; 108
    1352:	21 f4       	brne	.+8      	; 0x135c <vfprintf+0xe2>
    1354:	83 2d       	mov	r24, r3
    1356:	80 68       	ori	r24, 0x80	; 128
    1358:	38 2e       	mov	r3, r24
    135a:	02 c0       	rjmp	.+4      	; 0x1360 <vfprintf+0xe6>
    135c:	88 36       	cpi	r24, 0x68	; 104
    135e:	41 f4       	brne	.+16     	; 0x1370 <vfprintf+0xf6>
    1360:	f7 01       	movw	r30, r14
    1362:	93 fd       	sbrc	r25, 3
    1364:	85 91       	lpm	r24, Z+
    1366:	93 ff       	sbrs	r25, 3
    1368:	81 91       	ld	r24, Z+
    136a:	7f 01       	movw	r14, r30
    136c:	81 11       	cpse	r24, r1
    136e:	b3 cf       	rjmp	.-154    	; 0x12d6 <vfprintf+0x5c>
    1370:	98 2f       	mov	r25, r24
    1372:	9f 7d       	andi	r25, 0xDF	; 223
    1374:	95 54       	subi	r25, 0x45	; 69
    1376:	93 30       	cpi	r25, 0x03	; 3
    1378:	28 f4       	brcc	.+10     	; 0x1384 <vfprintf+0x10a>
    137a:	0c 5f       	subi	r16, 0xFC	; 252
    137c:	1f 4f       	sbci	r17, 0xFF	; 255
    137e:	9f e3       	ldi	r25, 0x3F	; 63
    1380:	99 83       	std	Y+1, r25	; 0x01
    1382:	0d c0       	rjmp	.+26     	; 0x139e <vfprintf+0x124>
    1384:	83 36       	cpi	r24, 0x63	; 99
    1386:	31 f0       	breq	.+12     	; 0x1394 <vfprintf+0x11a>
    1388:	83 37       	cpi	r24, 0x73	; 115
    138a:	71 f0       	breq	.+28     	; 0x13a8 <vfprintf+0x12e>
    138c:	83 35       	cpi	r24, 0x53	; 83
    138e:	09 f0       	breq	.+2      	; 0x1392 <vfprintf+0x118>
    1390:	59 c0       	rjmp	.+178    	; 0x1444 <vfprintf+0x1ca>
    1392:	21 c0       	rjmp	.+66     	; 0x13d6 <vfprintf+0x15c>
    1394:	f8 01       	movw	r30, r16
    1396:	80 81       	ld	r24, Z
    1398:	89 83       	std	Y+1, r24	; 0x01
    139a:	0e 5f       	subi	r16, 0xFE	; 254
    139c:	1f 4f       	sbci	r17, 0xFF	; 255
    139e:	88 24       	eor	r8, r8
    13a0:	83 94       	inc	r8
    13a2:	91 2c       	mov	r9, r1
    13a4:	53 01       	movw	r10, r6
    13a6:	13 c0       	rjmp	.+38     	; 0x13ce <vfprintf+0x154>
    13a8:	28 01       	movw	r4, r16
    13aa:	f2 e0       	ldi	r31, 0x02	; 2
    13ac:	4f 0e       	add	r4, r31
    13ae:	51 1c       	adc	r5, r1
    13b0:	f8 01       	movw	r30, r16
    13b2:	a0 80       	ld	r10, Z
    13b4:	b1 80       	ldd	r11, Z+1	; 0x01
    13b6:	36 fe       	sbrs	r3, 6
    13b8:	03 c0       	rjmp	.+6      	; 0x13c0 <vfprintf+0x146>
    13ba:	69 2d       	mov	r22, r9
    13bc:	70 e0       	ldi	r23, 0x00	; 0
    13be:	02 c0       	rjmp	.+4      	; 0x13c4 <vfprintf+0x14a>
    13c0:	6f ef       	ldi	r22, 0xFF	; 255
    13c2:	7f ef       	ldi	r23, 0xFF	; 255
    13c4:	c5 01       	movw	r24, r10
    13c6:	0e 94 32 0b 	call	0x1664	; 0x1664 <strnlen>
    13ca:	4c 01       	movw	r8, r24
    13cc:	82 01       	movw	r16, r4
    13ce:	f3 2d       	mov	r31, r3
    13d0:	ff 77       	andi	r31, 0x7F	; 127
    13d2:	3f 2e       	mov	r3, r31
    13d4:	16 c0       	rjmp	.+44     	; 0x1402 <vfprintf+0x188>
    13d6:	28 01       	movw	r4, r16
    13d8:	22 e0       	ldi	r18, 0x02	; 2
    13da:	42 0e       	add	r4, r18
    13dc:	51 1c       	adc	r5, r1
    13de:	f8 01       	movw	r30, r16
    13e0:	a0 80       	ld	r10, Z
    13e2:	b1 80       	ldd	r11, Z+1	; 0x01
    13e4:	36 fe       	sbrs	r3, 6
    13e6:	03 c0       	rjmp	.+6      	; 0x13ee <vfprintf+0x174>
    13e8:	69 2d       	mov	r22, r9
    13ea:	70 e0       	ldi	r23, 0x00	; 0
    13ec:	02 c0       	rjmp	.+4      	; 0x13f2 <vfprintf+0x178>
    13ee:	6f ef       	ldi	r22, 0xFF	; 255
    13f0:	7f ef       	ldi	r23, 0xFF	; 255
    13f2:	c5 01       	movw	r24, r10
    13f4:	0e 94 1e 0b 	call	0x163c	; 0x163c <strnlen_P>
    13f8:	4c 01       	movw	r8, r24
    13fa:	f3 2d       	mov	r31, r3
    13fc:	f0 68       	ori	r31, 0x80	; 128
    13fe:	3f 2e       	mov	r3, r31
    1400:	82 01       	movw	r16, r4
    1402:	33 fc       	sbrc	r3, 3
    1404:	1b c0       	rjmp	.+54     	; 0x143c <vfprintf+0x1c2>
    1406:	82 2d       	mov	r24, r2
    1408:	90 e0       	ldi	r25, 0x00	; 0
    140a:	88 16       	cp	r8, r24
    140c:	99 06       	cpc	r9, r25
    140e:	b0 f4       	brcc	.+44     	; 0x143c <vfprintf+0x1c2>
    1410:	b6 01       	movw	r22, r12
    1412:	80 e2       	ldi	r24, 0x20	; 32
    1414:	90 e0       	ldi	r25, 0x00	; 0
    1416:	0e 94 3d 0b 	call	0x167a	; 0x167a <fputc>
    141a:	2a 94       	dec	r2
    141c:	f4 cf       	rjmp	.-24     	; 0x1406 <vfprintf+0x18c>
    141e:	f5 01       	movw	r30, r10
    1420:	37 fc       	sbrc	r3, 7
    1422:	85 91       	lpm	r24, Z+
    1424:	37 fe       	sbrs	r3, 7
    1426:	81 91       	ld	r24, Z+
    1428:	5f 01       	movw	r10, r30
    142a:	b6 01       	movw	r22, r12
    142c:	90 e0       	ldi	r25, 0x00	; 0
    142e:	0e 94 3d 0b 	call	0x167a	; 0x167a <fputc>
    1432:	21 10       	cpse	r2, r1
    1434:	2a 94       	dec	r2
    1436:	21 e0       	ldi	r18, 0x01	; 1
    1438:	82 1a       	sub	r8, r18
    143a:	91 08       	sbc	r9, r1
    143c:	81 14       	cp	r8, r1
    143e:	91 04       	cpc	r9, r1
    1440:	71 f7       	brne	.-36     	; 0x141e <vfprintf+0x1a4>
    1442:	e8 c0       	rjmp	.+464    	; 0x1614 <vfprintf+0x39a>
    1444:	84 36       	cpi	r24, 0x64	; 100
    1446:	11 f0       	breq	.+4      	; 0x144c <vfprintf+0x1d2>
    1448:	89 36       	cpi	r24, 0x69	; 105
    144a:	41 f5       	brne	.+80     	; 0x149c <vfprintf+0x222>
    144c:	f8 01       	movw	r30, r16
    144e:	37 fe       	sbrs	r3, 7
    1450:	07 c0       	rjmp	.+14     	; 0x1460 <vfprintf+0x1e6>
    1452:	60 81       	ld	r22, Z
    1454:	71 81       	ldd	r23, Z+1	; 0x01
    1456:	82 81       	ldd	r24, Z+2	; 0x02
    1458:	93 81       	ldd	r25, Z+3	; 0x03
    145a:	0c 5f       	subi	r16, 0xFC	; 252
    145c:	1f 4f       	sbci	r17, 0xFF	; 255
    145e:	08 c0       	rjmp	.+16     	; 0x1470 <vfprintf+0x1f6>
    1460:	60 81       	ld	r22, Z
    1462:	71 81       	ldd	r23, Z+1	; 0x01
    1464:	07 2e       	mov	r0, r23
    1466:	00 0c       	add	r0, r0
    1468:	88 0b       	sbc	r24, r24
    146a:	99 0b       	sbc	r25, r25
    146c:	0e 5f       	subi	r16, 0xFE	; 254
    146e:	1f 4f       	sbci	r17, 0xFF	; 255
    1470:	f3 2d       	mov	r31, r3
    1472:	ff 76       	andi	r31, 0x6F	; 111
    1474:	3f 2e       	mov	r3, r31
    1476:	97 ff       	sbrs	r25, 7
    1478:	09 c0       	rjmp	.+18     	; 0x148c <vfprintf+0x212>
    147a:	90 95       	com	r25
    147c:	80 95       	com	r24
    147e:	70 95       	com	r23
    1480:	61 95       	neg	r22
    1482:	7f 4f       	sbci	r23, 0xFF	; 255
    1484:	8f 4f       	sbci	r24, 0xFF	; 255
    1486:	9f 4f       	sbci	r25, 0xFF	; 255
    1488:	f0 68       	ori	r31, 0x80	; 128
    148a:	3f 2e       	mov	r3, r31
    148c:	2a e0       	ldi	r18, 0x0A	; 10
    148e:	30 e0       	ldi	r19, 0x00	; 0
    1490:	a3 01       	movw	r20, r6
    1492:	0e 94 79 0b 	call	0x16f2	; 0x16f2 <__ultoa_invert>
    1496:	88 2e       	mov	r8, r24
    1498:	86 18       	sub	r8, r6
    149a:	45 c0       	rjmp	.+138    	; 0x1526 <vfprintf+0x2ac>
    149c:	85 37       	cpi	r24, 0x75	; 117
    149e:	31 f4       	brne	.+12     	; 0x14ac <vfprintf+0x232>
    14a0:	23 2d       	mov	r18, r3
    14a2:	2f 7e       	andi	r18, 0xEF	; 239
    14a4:	b2 2e       	mov	r11, r18
    14a6:	2a e0       	ldi	r18, 0x0A	; 10
    14a8:	30 e0       	ldi	r19, 0x00	; 0
    14aa:	25 c0       	rjmp	.+74     	; 0x14f6 <vfprintf+0x27c>
    14ac:	93 2d       	mov	r25, r3
    14ae:	99 7f       	andi	r25, 0xF9	; 249
    14b0:	b9 2e       	mov	r11, r25
    14b2:	8f 36       	cpi	r24, 0x6F	; 111
    14b4:	c1 f0       	breq	.+48     	; 0x14e6 <vfprintf+0x26c>
    14b6:	18 f4       	brcc	.+6      	; 0x14be <vfprintf+0x244>
    14b8:	88 35       	cpi	r24, 0x58	; 88
    14ba:	79 f0       	breq	.+30     	; 0x14da <vfprintf+0x260>
    14bc:	b5 c0       	rjmp	.+362    	; 0x1628 <vfprintf+0x3ae>
    14be:	80 37       	cpi	r24, 0x70	; 112
    14c0:	19 f0       	breq	.+6      	; 0x14c8 <vfprintf+0x24e>
    14c2:	88 37       	cpi	r24, 0x78	; 120
    14c4:	21 f0       	breq	.+8      	; 0x14ce <vfprintf+0x254>
    14c6:	b0 c0       	rjmp	.+352    	; 0x1628 <vfprintf+0x3ae>
    14c8:	e9 2f       	mov	r30, r25
    14ca:	e0 61       	ori	r30, 0x10	; 16
    14cc:	be 2e       	mov	r11, r30
    14ce:	b4 fe       	sbrs	r11, 4
    14d0:	0d c0       	rjmp	.+26     	; 0x14ec <vfprintf+0x272>
    14d2:	fb 2d       	mov	r31, r11
    14d4:	f4 60       	ori	r31, 0x04	; 4
    14d6:	bf 2e       	mov	r11, r31
    14d8:	09 c0       	rjmp	.+18     	; 0x14ec <vfprintf+0x272>
    14da:	34 fe       	sbrs	r3, 4
    14dc:	0a c0       	rjmp	.+20     	; 0x14f2 <vfprintf+0x278>
    14de:	29 2f       	mov	r18, r25
    14e0:	26 60       	ori	r18, 0x06	; 6
    14e2:	b2 2e       	mov	r11, r18
    14e4:	06 c0       	rjmp	.+12     	; 0x14f2 <vfprintf+0x278>
    14e6:	28 e0       	ldi	r18, 0x08	; 8
    14e8:	30 e0       	ldi	r19, 0x00	; 0
    14ea:	05 c0       	rjmp	.+10     	; 0x14f6 <vfprintf+0x27c>
    14ec:	20 e1       	ldi	r18, 0x10	; 16
    14ee:	30 e0       	ldi	r19, 0x00	; 0
    14f0:	02 c0       	rjmp	.+4      	; 0x14f6 <vfprintf+0x27c>
    14f2:	20 e1       	ldi	r18, 0x10	; 16
    14f4:	32 e0       	ldi	r19, 0x02	; 2
    14f6:	f8 01       	movw	r30, r16
    14f8:	b7 fe       	sbrs	r11, 7
    14fa:	07 c0       	rjmp	.+14     	; 0x150a <vfprintf+0x290>
    14fc:	60 81       	ld	r22, Z
    14fe:	71 81       	ldd	r23, Z+1	; 0x01
    1500:	82 81       	ldd	r24, Z+2	; 0x02
    1502:	93 81       	ldd	r25, Z+3	; 0x03
    1504:	0c 5f       	subi	r16, 0xFC	; 252
    1506:	1f 4f       	sbci	r17, 0xFF	; 255
    1508:	06 c0       	rjmp	.+12     	; 0x1516 <vfprintf+0x29c>
    150a:	60 81       	ld	r22, Z
    150c:	71 81       	ldd	r23, Z+1	; 0x01
    150e:	80 e0       	ldi	r24, 0x00	; 0
    1510:	90 e0       	ldi	r25, 0x00	; 0
    1512:	0e 5f       	subi	r16, 0xFE	; 254
    1514:	1f 4f       	sbci	r17, 0xFF	; 255
    1516:	a3 01       	movw	r20, r6
    1518:	0e 94 79 0b 	call	0x16f2	; 0x16f2 <__ultoa_invert>
    151c:	88 2e       	mov	r8, r24
    151e:	86 18       	sub	r8, r6
    1520:	fb 2d       	mov	r31, r11
    1522:	ff 77       	andi	r31, 0x7F	; 127
    1524:	3f 2e       	mov	r3, r31
    1526:	36 fe       	sbrs	r3, 6
    1528:	0d c0       	rjmp	.+26     	; 0x1544 <vfprintf+0x2ca>
    152a:	23 2d       	mov	r18, r3
    152c:	2e 7f       	andi	r18, 0xFE	; 254
    152e:	a2 2e       	mov	r10, r18
    1530:	89 14       	cp	r8, r9
    1532:	58 f4       	brcc	.+22     	; 0x154a <vfprintf+0x2d0>
    1534:	34 fe       	sbrs	r3, 4
    1536:	0b c0       	rjmp	.+22     	; 0x154e <vfprintf+0x2d4>
    1538:	32 fc       	sbrc	r3, 2
    153a:	09 c0       	rjmp	.+18     	; 0x154e <vfprintf+0x2d4>
    153c:	83 2d       	mov	r24, r3
    153e:	8e 7e       	andi	r24, 0xEE	; 238
    1540:	a8 2e       	mov	r10, r24
    1542:	05 c0       	rjmp	.+10     	; 0x154e <vfprintf+0x2d4>
    1544:	b8 2c       	mov	r11, r8
    1546:	a3 2c       	mov	r10, r3
    1548:	03 c0       	rjmp	.+6      	; 0x1550 <vfprintf+0x2d6>
    154a:	b8 2c       	mov	r11, r8
    154c:	01 c0       	rjmp	.+2      	; 0x1550 <vfprintf+0x2d6>
    154e:	b9 2c       	mov	r11, r9
    1550:	a4 fe       	sbrs	r10, 4
    1552:	0f c0       	rjmp	.+30     	; 0x1572 <vfprintf+0x2f8>
    1554:	fe 01       	movw	r30, r28
    1556:	e8 0d       	add	r30, r8
    1558:	f1 1d       	adc	r31, r1
    155a:	80 81       	ld	r24, Z
    155c:	80 33       	cpi	r24, 0x30	; 48
    155e:	21 f4       	brne	.+8      	; 0x1568 <vfprintf+0x2ee>
    1560:	9a 2d       	mov	r25, r10
    1562:	99 7e       	andi	r25, 0xE9	; 233
    1564:	a9 2e       	mov	r10, r25
    1566:	09 c0       	rjmp	.+18     	; 0x157a <vfprintf+0x300>
    1568:	a2 fe       	sbrs	r10, 2
    156a:	06 c0       	rjmp	.+12     	; 0x1578 <vfprintf+0x2fe>
    156c:	b3 94       	inc	r11
    156e:	b3 94       	inc	r11
    1570:	04 c0       	rjmp	.+8      	; 0x157a <vfprintf+0x300>
    1572:	8a 2d       	mov	r24, r10
    1574:	86 78       	andi	r24, 0x86	; 134
    1576:	09 f0       	breq	.+2      	; 0x157a <vfprintf+0x300>
    1578:	b3 94       	inc	r11
    157a:	a3 fc       	sbrc	r10, 3
    157c:	11 c0       	rjmp	.+34     	; 0x15a0 <vfprintf+0x326>
    157e:	a0 fe       	sbrs	r10, 0
    1580:	06 c0       	rjmp	.+12     	; 0x158e <vfprintf+0x314>
    1582:	b2 14       	cp	r11, r2
    1584:	88 f4       	brcc	.+34     	; 0x15a8 <vfprintf+0x32e>
    1586:	28 0c       	add	r2, r8
    1588:	92 2c       	mov	r9, r2
    158a:	9b 18       	sub	r9, r11
    158c:	0e c0       	rjmp	.+28     	; 0x15aa <vfprintf+0x330>
    158e:	b2 14       	cp	r11, r2
    1590:	60 f4       	brcc	.+24     	; 0x15aa <vfprintf+0x330>
    1592:	b6 01       	movw	r22, r12
    1594:	80 e2       	ldi	r24, 0x20	; 32
    1596:	90 e0       	ldi	r25, 0x00	; 0
    1598:	0e 94 3d 0b 	call	0x167a	; 0x167a <fputc>
    159c:	b3 94       	inc	r11
    159e:	f7 cf       	rjmp	.-18     	; 0x158e <vfprintf+0x314>
    15a0:	b2 14       	cp	r11, r2
    15a2:	18 f4       	brcc	.+6      	; 0x15aa <vfprintf+0x330>
    15a4:	2b 18       	sub	r2, r11
    15a6:	02 c0       	rjmp	.+4      	; 0x15ac <vfprintf+0x332>
    15a8:	98 2c       	mov	r9, r8
    15aa:	21 2c       	mov	r2, r1
    15ac:	a4 fe       	sbrs	r10, 4
    15ae:	10 c0       	rjmp	.+32     	; 0x15d0 <vfprintf+0x356>
    15b0:	b6 01       	movw	r22, r12
    15b2:	80 e3       	ldi	r24, 0x30	; 48
    15b4:	90 e0       	ldi	r25, 0x00	; 0
    15b6:	0e 94 3d 0b 	call	0x167a	; 0x167a <fputc>
    15ba:	a2 fe       	sbrs	r10, 2
    15bc:	17 c0       	rjmp	.+46     	; 0x15ec <vfprintf+0x372>
    15be:	a1 fc       	sbrc	r10, 1
    15c0:	03 c0       	rjmp	.+6      	; 0x15c8 <vfprintf+0x34e>
    15c2:	88 e7       	ldi	r24, 0x78	; 120
    15c4:	90 e0       	ldi	r25, 0x00	; 0
    15c6:	02 c0       	rjmp	.+4      	; 0x15cc <vfprintf+0x352>
    15c8:	88 e5       	ldi	r24, 0x58	; 88
    15ca:	90 e0       	ldi	r25, 0x00	; 0
    15cc:	b6 01       	movw	r22, r12
    15ce:	0c c0       	rjmp	.+24     	; 0x15e8 <vfprintf+0x36e>
    15d0:	8a 2d       	mov	r24, r10
    15d2:	86 78       	andi	r24, 0x86	; 134
    15d4:	59 f0       	breq	.+22     	; 0x15ec <vfprintf+0x372>
    15d6:	a1 fe       	sbrs	r10, 1
    15d8:	02 c0       	rjmp	.+4      	; 0x15de <vfprintf+0x364>
    15da:	8b e2       	ldi	r24, 0x2B	; 43
    15dc:	01 c0       	rjmp	.+2      	; 0x15e0 <vfprintf+0x366>
    15de:	80 e2       	ldi	r24, 0x20	; 32
    15e0:	a7 fc       	sbrc	r10, 7
    15e2:	8d e2       	ldi	r24, 0x2D	; 45
    15e4:	b6 01       	movw	r22, r12
    15e6:	90 e0       	ldi	r25, 0x00	; 0
    15e8:	0e 94 3d 0b 	call	0x167a	; 0x167a <fputc>
    15ec:	89 14       	cp	r8, r9
    15ee:	38 f4       	brcc	.+14     	; 0x15fe <vfprintf+0x384>
    15f0:	b6 01       	movw	r22, r12
    15f2:	80 e3       	ldi	r24, 0x30	; 48
    15f4:	90 e0       	ldi	r25, 0x00	; 0
    15f6:	0e 94 3d 0b 	call	0x167a	; 0x167a <fputc>
    15fa:	9a 94       	dec	r9
    15fc:	f7 cf       	rjmp	.-18     	; 0x15ec <vfprintf+0x372>
    15fe:	8a 94       	dec	r8
    1600:	f3 01       	movw	r30, r6
    1602:	e8 0d       	add	r30, r8
    1604:	f1 1d       	adc	r31, r1
    1606:	80 81       	ld	r24, Z
    1608:	b6 01       	movw	r22, r12
    160a:	90 e0       	ldi	r25, 0x00	; 0
    160c:	0e 94 3d 0b 	call	0x167a	; 0x167a <fputc>
    1610:	81 10       	cpse	r8, r1
    1612:	f5 cf       	rjmp	.-22     	; 0x15fe <vfprintf+0x384>
    1614:	22 20       	and	r2, r2
    1616:	09 f4       	brne	.+2      	; 0x161a <vfprintf+0x3a0>
    1618:	42 ce       	rjmp	.-892    	; 0x129e <vfprintf+0x24>
    161a:	b6 01       	movw	r22, r12
    161c:	80 e2       	ldi	r24, 0x20	; 32
    161e:	90 e0       	ldi	r25, 0x00	; 0
    1620:	0e 94 3d 0b 	call	0x167a	; 0x167a <fputc>
    1624:	2a 94       	dec	r2
    1626:	f6 cf       	rjmp	.-20     	; 0x1614 <vfprintf+0x39a>
    1628:	f6 01       	movw	r30, r12
    162a:	86 81       	ldd	r24, Z+6	; 0x06
    162c:	97 81       	ldd	r25, Z+7	; 0x07
    162e:	02 c0       	rjmp	.+4      	; 0x1634 <vfprintf+0x3ba>
    1630:	8f ef       	ldi	r24, 0xFF	; 255
    1632:	9f ef       	ldi	r25, 0xFF	; 255
    1634:	2b 96       	adiw	r28, 0x0b	; 11
    1636:	e2 e1       	ldi	r30, 0x12	; 18
    1638:	0c 94 f3 0b 	jmp	0x17e6	; 0x17e6 <__epilogue_restores__>

0000163c <strnlen_P>:
    163c:	fc 01       	movw	r30, r24
    163e:	05 90       	lpm	r0, Z+
    1640:	61 50       	subi	r22, 0x01	; 1
    1642:	70 40       	sbci	r23, 0x00	; 0
    1644:	01 10       	cpse	r0, r1
    1646:	d8 f7       	brcc	.-10     	; 0x163e <strnlen_P+0x2>
    1648:	80 95       	com	r24
    164a:	90 95       	com	r25
    164c:	8e 0f       	add	r24, r30
    164e:	9f 1f       	adc	r25, r31
    1650:	08 95       	ret

00001652 <memcpy>:
    1652:	fb 01       	movw	r30, r22
    1654:	dc 01       	movw	r26, r24
    1656:	02 c0       	rjmp	.+4      	; 0x165c <memcpy+0xa>
    1658:	01 90       	ld	r0, Z+
    165a:	0d 92       	st	X+, r0
    165c:	41 50       	subi	r20, 0x01	; 1
    165e:	50 40       	sbci	r21, 0x00	; 0
    1660:	d8 f7       	brcc	.-10     	; 0x1658 <memcpy+0x6>
    1662:	08 95       	ret

00001664 <strnlen>:
    1664:	fc 01       	movw	r30, r24
    1666:	61 50       	subi	r22, 0x01	; 1
    1668:	70 40       	sbci	r23, 0x00	; 0
    166a:	01 90       	ld	r0, Z+
    166c:	01 10       	cpse	r0, r1
    166e:	d8 f7       	brcc	.-10     	; 0x1666 <strnlen+0x2>
    1670:	80 95       	com	r24
    1672:	90 95       	com	r25
    1674:	8e 0f       	add	r24, r30
    1676:	9f 1f       	adc	r25, r31
    1678:	08 95       	ret

0000167a <fputc>:
    167a:	0f 93       	push	r16
    167c:	1f 93       	push	r17
    167e:	cf 93       	push	r28
    1680:	df 93       	push	r29
    1682:	fb 01       	movw	r30, r22
    1684:	23 81       	ldd	r18, Z+3	; 0x03
    1686:	21 fd       	sbrc	r18, 1
    1688:	03 c0       	rjmp	.+6      	; 0x1690 <fputc+0x16>
    168a:	8f ef       	ldi	r24, 0xFF	; 255
    168c:	9f ef       	ldi	r25, 0xFF	; 255
    168e:	2c c0       	rjmp	.+88     	; 0x16e8 <fputc+0x6e>
    1690:	22 ff       	sbrs	r18, 2
    1692:	16 c0       	rjmp	.+44     	; 0x16c0 <fputc+0x46>
    1694:	46 81       	ldd	r20, Z+6	; 0x06
    1696:	57 81       	ldd	r21, Z+7	; 0x07
    1698:	24 81       	ldd	r18, Z+4	; 0x04
    169a:	35 81       	ldd	r19, Z+5	; 0x05
    169c:	42 17       	cp	r20, r18
    169e:	53 07       	cpc	r21, r19
    16a0:	44 f4       	brge	.+16     	; 0x16b2 <fputc+0x38>
    16a2:	a0 81       	ld	r26, Z
    16a4:	b1 81       	ldd	r27, Z+1	; 0x01
    16a6:	9d 01       	movw	r18, r26
    16a8:	2f 5f       	subi	r18, 0xFF	; 255
    16aa:	3f 4f       	sbci	r19, 0xFF	; 255
    16ac:	31 83       	std	Z+1, r19	; 0x01
    16ae:	20 83       	st	Z, r18
    16b0:	8c 93       	st	X, r24
    16b2:	26 81       	ldd	r18, Z+6	; 0x06
    16b4:	37 81       	ldd	r19, Z+7	; 0x07
    16b6:	2f 5f       	subi	r18, 0xFF	; 255
    16b8:	3f 4f       	sbci	r19, 0xFF	; 255
    16ba:	37 83       	std	Z+7, r19	; 0x07
    16bc:	26 83       	std	Z+6, r18	; 0x06
    16be:	14 c0       	rjmp	.+40     	; 0x16e8 <fputc+0x6e>
    16c0:	8b 01       	movw	r16, r22
    16c2:	ec 01       	movw	r28, r24
    16c4:	fb 01       	movw	r30, r22
    16c6:	00 84       	ldd	r0, Z+8	; 0x08
    16c8:	f1 85       	ldd	r31, Z+9	; 0x09
    16ca:	e0 2d       	mov	r30, r0
    16cc:	09 95       	icall
    16ce:	89 2b       	or	r24, r25
    16d0:	e1 f6       	brne	.-72     	; 0x168a <fputc+0x10>
    16d2:	d8 01       	movw	r26, r16
    16d4:	16 96       	adiw	r26, 0x06	; 6
    16d6:	8d 91       	ld	r24, X+
    16d8:	9c 91       	ld	r25, X
    16da:	17 97       	sbiw	r26, 0x07	; 7
    16dc:	01 96       	adiw	r24, 0x01	; 1
    16de:	17 96       	adiw	r26, 0x07	; 7
    16e0:	9c 93       	st	X, r25
    16e2:	8e 93       	st	-X, r24
    16e4:	16 97       	sbiw	r26, 0x06	; 6
    16e6:	ce 01       	movw	r24, r28
    16e8:	df 91       	pop	r29
    16ea:	cf 91       	pop	r28
    16ec:	1f 91       	pop	r17
    16ee:	0f 91       	pop	r16
    16f0:	08 95       	ret

000016f2 <__ultoa_invert>:
    16f2:	fa 01       	movw	r30, r20
    16f4:	aa 27       	eor	r26, r26
    16f6:	28 30       	cpi	r18, 0x08	; 8
    16f8:	51 f1       	breq	.+84     	; 0x174e <__ultoa_invert+0x5c>
    16fa:	20 31       	cpi	r18, 0x10	; 16
    16fc:	81 f1       	breq	.+96     	; 0x175e <__ultoa_invert+0x6c>
    16fe:	e8 94       	clt
    1700:	6f 93       	push	r22
    1702:	6e 7f       	andi	r22, 0xFE	; 254
    1704:	6e 5f       	subi	r22, 0xFE	; 254
    1706:	7f 4f       	sbci	r23, 0xFF	; 255
    1708:	8f 4f       	sbci	r24, 0xFF	; 255
    170a:	9f 4f       	sbci	r25, 0xFF	; 255
    170c:	af 4f       	sbci	r26, 0xFF	; 255
    170e:	b1 e0       	ldi	r27, 0x01	; 1
    1710:	3e d0       	rcall	.+124    	; 0x178e <__ultoa_invert+0x9c>
    1712:	b4 e0       	ldi	r27, 0x04	; 4
    1714:	3c d0       	rcall	.+120    	; 0x178e <__ultoa_invert+0x9c>
    1716:	67 0f       	add	r22, r23
    1718:	78 1f       	adc	r23, r24
    171a:	89 1f       	adc	r24, r25
    171c:	9a 1f       	adc	r25, r26
    171e:	a1 1d       	adc	r26, r1
    1720:	68 0f       	add	r22, r24
    1722:	79 1f       	adc	r23, r25
    1724:	8a 1f       	adc	r24, r26
    1726:	91 1d       	adc	r25, r1
    1728:	a1 1d       	adc	r26, r1
    172a:	6a 0f       	add	r22, r26
    172c:	71 1d       	adc	r23, r1
    172e:	81 1d       	adc	r24, r1
    1730:	91 1d       	adc	r25, r1
    1732:	a1 1d       	adc	r26, r1
    1734:	20 d0       	rcall	.+64     	; 0x1776 <__ultoa_invert+0x84>
    1736:	09 f4       	brne	.+2      	; 0x173a <__ultoa_invert+0x48>
    1738:	68 94       	set
    173a:	3f 91       	pop	r19
    173c:	2a e0       	ldi	r18, 0x0A	; 10
    173e:	26 9f       	mul	r18, r22
    1740:	11 24       	eor	r1, r1
    1742:	30 19       	sub	r19, r0
    1744:	30 5d       	subi	r19, 0xD0	; 208
    1746:	31 93       	st	Z+, r19
    1748:	de f6       	brtc	.-74     	; 0x1700 <__ultoa_invert+0xe>
    174a:	cf 01       	movw	r24, r30
    174c:	08 95       	ret
    174e:	46 2f       	mov	r20, r22
    1750:	47 70       	andi	r20, 0x07	; 7
    1752:	40 5d       	subi	r20, 0xD0	; 208
    1754:	41 93       	st	Z+, r20
    1756:	b3 e0       	ldi	r27, 0x03	; 3
    1758:	0f d0       	rcall	.+30     	; 0x1778 <__ultoa_invert+0x86>
    175a:	c9 f7       	brne	.-14     	; 0x174e <__ultoa_invert+0x5c>
    175c:	f6 cf       	rjmp	.-20     	; 0x174a <__ultoa_invert+0x58>
    175e:	46 2f       	mov	r20, r22
    1760:	4f 70       	andi	r20, 0x0F	; 15
    1762:	40 5d       	subi	r20, 0xD0	; 208
    1764:	4a 33       	cpi	r20, 0x3A	; 58
    1766:	18 f0       	brcs	.+6      	; 0x176e <__ultoa_invert+0x7c>
    1768:	49 5d       	subi	r20, 0xD9	; 217
    176a:	31 fd       	sbrc	r19, 1
    176c:	40 52       	subi	r20, 0x20	; 32
    176e:	41 93       	st	Z+, r20
    1770:	02 d0       	rcall	.+4      	; 0x1776 <__ultoa_invert+0x84>
    1772:	a9 f7       	brne	.-22     	; 0x175e <__ultoa_invert+0x6c>
    1774:	ea cf       	rjmp	.-44     	; 0x174a <__ultoa_invert+0x58>
    1776:	b4 e0       	ldi	r27, 0x04	; 4
    1778:	a6 95       	lsr	r26
    177a:	97 95       	ror	r25
    177c:	87 95       	ror	r24
    177e:	77 95       	ror	r23
    1780:	67 95       	ror	r22
    1782:	ba 95       	dec	r27
    1784:	c9 f7       	brne	.-14     	; 0x1778 <__ultoa_invert+0x86>
    1786:	00 97       	sbiw	r24, 0x00	; 0
    1788:	61 05       	cpc	r22, r1
    178a:	71 05       	cpc	r23, r1
    178c:	08 95       	ret
    178e:	9b 01       	movw	r18, r22
    1790:	ac 01       	movw	r20, r24
    1792:	0a 2e       	mov	r0, r26
    1794:	06 94       	lsr	r0
    1796:	57 95       	ror	r21
    1798:	47 95       	ror	r20
    179a:	37 95       	ror	r19
    179c:	27 95       	ror	r18
    179e:	ba 95       	dec	r27
    17a0:	c9 f7       	brne	.-14     	; 0x1794 <__ultoa_invert+0xa2>
    17a2:	62 0f       	add	r22, r18
    17a4:	73 1f       	adc	r23, r19
    17a6:	84 1f       	adc	r24, r20
    17a8:	95 1f       	adc	r25, r21
    17aa:	a0 1d       	adc	r26, r0
    17ac:	08 95       	ret

000017ae <__prologue_saves__>:
    17ae:	2f 92       	push	r2
    17b0:	3f 92       	push	r3
    17b2:	4f 92       	push	r4
    17b4:	5f 92       	push	r5
    17b6:	6f 92       	push	r6
    17b8:	7f 92       	push	r7
    17ba:	8f 92       	push	r8
    17bc:	9f 92       	push	r9
    17be:	af 92       	push	r10
    17c0:	bf 92       	push	r11
    17c2:	cf 92       	push	r12
    17c4:	df 92       	push	r13
    17c6:	ef 92       	push	r14
    17c8:	ff 92       	push	r15
    17ca:	0f 93       	push	r16
    17cc:	1f 93       	push	r17
    17ce:	cf 93       	push	r28
    17d0:	df 93       	push	r29
    17d2:	cd b7       	in	r28, 0x3d	; 61
    17d4:	de b7       	in	r29, 0x3e	; 62
    17d6:	ca 1b       	sub	r28, r26
    17d8:	db 0b       	sbc	r29, r27
    17da:	0f b6       	in	r0, 0x3f	; 63
    17dc:	f8 94       	cli
    17de:	de bf       	out	0x3e, r29	; 62
    17e0:	0f be       	out	0x3f, r0	; 63
    17e2:	cd bf       	out	0x3d, r28	; 61
    17e4:	09 94       	ijmp

000017e6 <__epilogue_restores__>:
    17e6:	2a 88       	ldd	r2, Y+18	; 0x12
    17e8:	39 88       	ldd	r3, Y+17	; 0x11
    17ea:	48 88       	ldd	r4, Y+16	; 0x10
    17ec:	5f 84       	ldd	r5, Y+15	; 0x0f
    17ee:	6e 84       	ldd	r6, Y+14	; 0x0e
    17f0:	7d 84       	ldd	r7, Y+13	; 0x0d
    17f2:	8c 84       	ldd	r8, Y+12	; 0x0c
    17f4:	9b 84       	ldd	r9, Y+11	; 0x0b
    17f6:	aa 84       	ldd	r10, Y+10	; 0x0a
    17f8:	b9 84       	ldd	r11, Y+9	; 0x09
    17fa:	c8 84       	ldd	r12, Y+8	; 0x08
    17fc:	df 80       	ldd	r13, Y+7	; 0x07
    17fe:	ee 80       	ldd	r14, Y+6	; 0x06
    1800:	fd 80       	ldd	r15, Y+5	; 0x05
    1802:	0c 81       	ldd	r16, Y+4	; 0x04
    1804:	1b 81       	ldd	r17, Y+3	; 0x03
    1806:	aa 81       	ldd	r26, Y+2	; 0x02
    1808:	b9 81       	ldd	r27, Y+1	; 0x01
    180a:	ce 0f       	add	r28, r30
    180c:	d1 1d       	adc	r29, r1
    180e:	0f b6       	in	r0, 0x3f	; 63
    1810:	f8 94       	cli
    1812:	de bf       	out	0x3e, r29	; 62
    1814:	0f be       	out	0x3f, r0	; 63
    1816:	cd bf       	out	0x3d, r28	; 61
    1818:	ed 01       	movw	r28, r26
    181a:	08 95       	ret

0000181c <_exit>:
    181c:	f8 94       	cli

0000181e <__stop_program>:
    181e:	ff cf       	rjmp	.-2      	; 0x181e <__stop_program>
